Archive member included to satisfy reference by file (symbol)

c:/devkitPro/libctru/lib\libsfil.a(sfil_png.o)
                              gfx.o (sfil_load_PNG_buffer)
c:/devkitPro/portlibs/armv6k/lib\libpng.a(png.o)
                              c:/devkitPro/libctru/lib\libsfil.a(sfil_png.o) (png_set_sig_bytes)
c:/devkitPro/portlibs/armv6k/lib\libpng.a(pngerror.o)
                              c:/devkitPro/portlibs/armv6k/lib\libpng.a(png.o) (png_safecat)
c:/devkitPro/portlibs/armv6k/lib\libpng.a(pngget.o)
                              c:/devkitPro/libctru/lib\libsfil.a(sfil_png.o) (png_get_valid)
c:/devkitPro/portlibs/armv6k/lib\libpng.a(pngmem.o)
                              c:/devkitPro/portlibs/armv6k/lib\libpng.a(png.o) (png_calloc)
c:/devkitPro/portlibs/armv6k/lib\libpng.a(pngread.o)
                              c:/devkitPro/libctru/lib\libsfil.a(sfil_png.o) (png_create_read_struct)
c:/devkitPro/portlibs/armv6k/lib\libpng.a(pngrio.o)
                              c:/devkitPro/libctru/lib\libsfil.a(sfil_png.o) (png_set_read_fn)
c:/devkitPro/portlibs/armv6k/lib\libpng.a(pngrtran.o)
                              c:/devkitPro/portlibs/armv6k/lib\libpng.a(pngread.o) (png_set_background_fixed)
c:/devkitPro/portlibs/armv6k/lib\libpng.a(pngrutil.o)
                              c:/devkitPro/portlibs/armv6k/lib\libpng.a(pngread.o) (png_read_sig)
c:/devkitPro/portlibs/armv6k/lib\libpng.a(pngset.o)
                              c:/devkitPro/portlibs/armv6k/lib\libpng.a(pngrutil.o) (png_set_bKGD)
c:/devkitPro/portlibs/armv6k/lib\libpng.a(pngtrans.o)
                              c:/devkitPro/portlibs/armv6k/lib\libpng.a(pngread.o) (png_set_bgr)
c:/devkitPro/portlibs/armv6k/lib\libpng.a(pngwrite.o)
                              c:/devkitPro/portlibs/armv6k/lib\libpng.a(png.o) (png_destroy_write_struct)
c:/devkitPro/portlibs/armv6k/lib\libpng.a(pngwtran.o)
                              c:/devkitPro/portlibs/armv6k/lib\libpng.a(pngwrite.o) (png_do_write_transformations)
c:/devkitPro/portlibs/armv6k/lib\libpng.a(pngwutil.o)
                              c:/devkitPro/portlibs/armv6k/lib\libpng.a(pngwrite.o) (png_write_sig)
c:/devkitPro/portlibs/armv6k/lib\libpng.a(pngwio.o)
                              c:/devkitPro/portlibs/armv6k/lib\libpng.a(pngwutil.o) (png_write_data)
c:/devkitPro/portlibs/armv6k/lib\libz.a(adler32.o)
                              c:/devkitPro/portlibs/armv6k/lib\libpng.a(png.o) (adler32)
c:/devkitPro/portlibs/armv6k/lib\libz.a(crc32.o)
                              c:/devkitPro/portlibs/armv6k/lib\libpng.a(png.o) (crc32)
c:/devkitPro/portlibs/armv6k/lib\libz.a(deflate.o)
                              c:/devkitPro/portlibs/armv6k/lib\libpng.a(pngwutil.o) (deflateReset)
c:/devkitPro/portlibs/armv6k/lib\libz.a(inflate.o)
                              c:/devkitPro/portlibs/armv6k/lib\libpng.a(png.o) (inflateReset)
c:/devkitPro/portlibs/armv6k/lib\libz.a(inftrees.o)
                              c:/devkitPro/portlibs/armv6k/lib\libz.a(inflate.o) (inflate_table)
c:/devkitPro/portlibs/armv6k/lib\libz.a(trees.o)
                              c:/devkitPro/portlibs/armv6k/lib\libz.a(deflate.o) (_tr_init)
c:/devkitPro/portlibs/armv6k/lib\libz.a(zutil.o)
                              c:/devkitPro/portlibs/armv6k/lib\libz.a(deflate.o) (zcalloc)
c:/devkitPro/portlibs/armv6k/lib\libz.a(inffast.o)
                              c:/devkitPro/portlibs/armv6k/lib\libz.a(inflate.o) (inflate_fast)
c:/devkitPro/libctru/lib\libsf2d.a(sf2d.o)
                              gfx.o (sf2d_init)
c:/devkitPro/libctru/lib\libsf2d.a(sf2d_draw.o)
                              gfx.o (sf2d_draw_rectangle)
c:/devkitPro/libctru/lib\libsf2d.a(sf2d_private.o)
                              c:/devkitPro/libctru/lib\libsf2d.a(sf2d.o) (GPU_SetDummyTexEnv)
c:/devkitPro/libctru/lib\libsf2d.a(sf2d_texture.o)
                              c:/devkitPro/libctru/lib\libsfil.a(sfil_png.o) (sf2d_create_texture)
c:/devkitPro/libctru/lib\libsf2d.a(shader.vsh.o)
                              c:/devkitPro/libctru/lib\libsf2d.a(sf2d.o) (shader_vsh_shbin_size)
c:/devkitPro/libctru/lib\libctru.a(linear.o)
                              c:/devkitPro/libctru/lib\libsf2d.a(sf2d_texture.o) (linearMemAlign)
c:/devkitPro/libctru/lib\libctru.a(mem_pool.o)
                              c:/devkitPro/libctru/lib\libctru.a(linear.o) (MemPool::Allocate(MemChunk&, unsigned long, int))
c:/devkitPro/libctru/lib\libctru.a(vram.o)
                              c:/devkitPro/libctru/lib\libsf2d.a(sf2d.o) (vramMemAlign)
c:/devkitPro/libctru/lib\libctru.a(gfx.o)
                              c:/devkitPro/libctru/lib\libsf2d.a(sf2d.o) (gfxSet3D)
c:/devkitPro/libctru/lib\libctru.a(os.o)
                              c:/devkitPro/libctru/lib\libsf2d.a(sf2d.o) (osConvertVirtToPhys)
c:/devkitPro/libctru/lib\libctru.a(gpu.o)
                              c:/devkitPro/libctru/lib\libsf2d.a(sf2d.o) (GPU_Init)
c:/devkitPro/libctru/lib\libctru.a(gpuResetSequence.o)
                              c:/devkitPro/libctru/lib\libctru.a(gpu.o) (gpuResetSequenceLength)
c:/devkitPro/libctru/lib\libctru.a(shaderProgram.o)
                              c:/devkitPro/libctru/lib\libsf2d.a(sf2d.o) (shaderInstanceGetUniformLocation)
c:/devkitPro/libctru/lib\libctru.a(shbin.o)
                              c:/devkitPro/libctru/lib\libsf2d.a(sf2d.o) (DVLB_Free)
c:/devkitPro/libctru/lib\libctru.a(apt.o)
                              c:/devkitPro/libctru/lib\libsf2d.a(sf2d.o) (aptHook)
c:/devkitPro/libctru/lib\libctru.a(gsp.o)
                              c:/devkitPro/libctru/lib\libctru.a(gfx.o) (gspInit)
c:/devkitPro/libctru/lib\libctru.a(gx.o)
                              c:/devkitPro/libctru/lib\libctru.a(gfx.o) (gxCmdBuf)
c:/devkitPro/libctru/lib\libctru.a(hid.o)
                              main.o (hidScanInput)
c:/devkitPro/libctru/lib\libctru.a(irrst.o)
                              c:/devkitPro/libctru/lib\libctru.a(hid.o) (irrstScanInput)
c:/devkitPro/libctru/lib\libctru.a(rbtree_find.o)
                              c:/devkitPro/libctru/lib\libctru.a(linear.o) (rbtree_find)
c:/devkitPro/libctru/lib\libctru.a(rbtree_init.o)
                              c:/devkitPro/libctru/lib\libctru.a(linear.o) (rbtree_init)
c:/devkitPro/libctru/lib\libctru.a(rbtree_insert.o)
                              c:/devkitPro/libctru/lib\libctru.a(linear.o) (rbtree_insert)
c:/devkitPro/libctru/lib\libctru.a(rbtree_remove.o)
                              c:/devkitPro/libctru/lib\libctru.a(linear.o) (rbtree_remove)
c:/devkitPro/libctru/lib\libctru.a(rbtree_rotate.o)
                              c:/devkitPro/libctru/lib\libctru.a(rbtree_insert.o) (rbtree_rotate)
c:/devkitPro/libctru/lib\libctru.a(allocateHeaps.o)
                              c:/devkitPro/libctru/lib\libctru.a(linear.o) (__linear_heap)
c:/devkitPro/libctru/lib\libctru.a(initArgv.o)
                              c:/devkitpro/devkitarm/bin/../lib/gcc/arm-none-eabi/4.9.2/../../../../arm-none-eabi/lib/armv6k/fpu/3dsx_crt0.o (__system_argc)
c:/devkitPro/libctru/lib\libctru.a(initSystem.o)
                              c:/devkitPro/libctru/lib\libctru.a(apt.o) (__system_retAddr)
c:/devkitPro/libctru/lib\libctru.a(svc.o)
                              c:/devkitPro/libctru/lib\libctru.a(allocateHeaps.o) (svcControlMemory)
c:/devkitPro/libctru/lib\libctru.a(stack_adjust.o)
                              c:/devkitpro/devkitarm/bin/../lib/gcc/arm-none-eabi/4.9.2/../../../../arm-none-eabi/lib/armv6k/fpu/3dsx_crt0.o (initSystem)
c:/devkitPro/libctru/lib\libctru.a(srv.o)
                              c:/devkitPro/libctru/lib\libctru.a(irrst.o) (__get_handle_from_list)
c:/devkitPro/libctru/lib\libctru.a(rbtree_iterator.o)
                              c:/devkitPro/libctru/lib\libctru.a(rbtree_remove.o) (rbtree_node_next)
c:/devkitPro/libctru/lib\libctru.a(appExit.o)
                              c:/devkitPro/libctru/lib\libctru.a(stack_adjust.o) (__appExit)
c:/devkitPro/libctru/lib\libctru.a(appInit.o)
                              c:/devkitPro/libctru/lib\libctru.a(stack_adjust.o) (__appInit)
c:/devkitPro/libctru/lib\libctru.a(ctru_exit.o)
                              c:/devkitPro/libctru/lib\libctru.a(stack_adjust.o) (__libctru_exit)
c:/devkitPro/libctru/lib\libctru.a(sdmc_dev.o)
                              c:/devkitPro/libctru/lib\libctru.a(appInit.o) (sdmcInit)
c:/devkitPro/libctru/lib\libctru.a(fs.o)
                              c:/devkitPro/libctru/lib\libctru.a(appExit.o) (fsExit)
c:/devkitPro/libctru/lib\libctru.a(decode_utf8.o)
                              c:/devkitPro/libctru/lib\libctru.a(sdmc_dev.o) (decode_utf8)
c:/devkitPro/libctru/lib\libctru.a(utf16_to_utf8.o)
                              c:/devkitPro/libctru/lib\libctru.a(sdmc_dev.o) (utf16_to_utf8)
c:/devkitPro/libctru/lib\libctru.a(utf8_to_utf16.o)
                              c:/devkitPro/libctru/lib\libctru.a(sdmc_dev.o) (utf8_to_utf16)
c:/devkitPro/libctru/lib\libctru.a(decode_utf16.o)
                              c:/devkitPro/libctru/lib\libctru.a(utf16_to_utf8.o) (decode_utf16)
c:/devkitPro/libctru/lib\libctru.a(encode_utf16.o)
                              c:/devkitPro/libctru/lib\libctru.a(utf8_to_utf16.o) (encode_utf16)
c:/devkitPro/libctru/lib\libctru.a(encode_utf8.o)
                              c:/devkitPro/libctru/lib\libctru.a(utf16_to_utf8.o) (encode_utf8)
c:/devkitpro/devkitarm/bin/../lib/gcc/arm-none-eabi/4.9.2/../../../../arm-none-eabi/lib/armv6k/fpu\libm.a(lib_a-sf_cos.o)
                              c:/devkitPro/libctru/lib\libsf2d.a(sf2d_private.o) (cosf)
c:/devkitpro/devkitarm/bin/../lib/gcc/arm-none-eabi/4.9.2/../../../../arm-none-eabi/lib/armv6k/fpu\libm.a(lib_a-s_floor.o)
                              c:/devkitPro/portlibs/armv6k/lib\libpng.a(png.o) (floor)
c:/devkitpro/devkitarm/bin/../lib/gcc/arm-none-eabi/4.9.2/../../../../arm-none-eabi/lib/armv6k/fpu\libm.a(lib_a-s_frexp.o)
                              c:/devkitPro/portlibs/armv6k/lib\libpng.a(png.o) (frexp)
c:/devkitpro/devkitarm/bin/../lib/gcc/arm-none-eabi/4.9.2/../../../../arm-none-eabi/lib/armv6k/fpu\libm.a(lib_a-sf_sin.o)
                              c:/devkitPro/libctru/lib\libsf2d.a(sf2d_private.o) (sinf)
c:/devkitpro/devkitarm/bin/../lib/gcc/arm-none-eabi/4.9.2/../../../../arm-none-eabi/lib/armv6k/fpu\libm.a(lib_a-s_modf.o)
                              c:/devkitPro/portlibs/armv6k/lib\libpng.a(png.o) (modf)
c:/devkitpro/devkitarm/bin/../lib/gcc/arm-none-eabi/4.9.2/../../../../arm-none-eabi/lib/armv6k/fpu\libm.a(lib_a-w_pow.o)
                              c:/devkitPro/portlibs/armv6k/lib\libpng.a(png.o) (pow)
c:/devkitpro/devkitarm/bin/../lib/gcc/arm-none-eabi/4.9.2/../../../../arm-none-eabi/lib/armv6k/fpu\libm.a(lib_a-ef_rem_pio2.o)
                              c:/devkitpro/devkitarm/bin/../lib/gcc/arm-none-eabi/4.9.2/../../../../arm-none-eabi/lib/armv6k/fpu\libm.a(lib_a-sf_cos.o) (__ieee754_rem_pio2f)
c:/devkitpro/devkitarm/bin/../lib/gcc/arm-none-eabi/4.9.2/../../../../arm-none-eabi/lib/armv6k/fpu\libm.a(lib_a-e_pow.o)
                              c:/devkitpro/devkitarm/bin/../lib/gcc/arm-none-eabi/4.9.2/../../../../arm-none-eabi/lib/armv6k/fpu\libm.a(lib_a-w_pow.o) (__ieee754_pow)
c:/devkitpro/devkitarm/bin/../lib/gcc/arm-none-eabi/4.9.2/../../../../arm-none-eabi/lib/armv6k/fpu\libm.a(lib_a-e_sqrt.o)
                              c:/devkitpro/devkitarm/bin/../lib/gcc/arm-none-eabi/4.9.2/../../../../arm-none-eabi/lib/armv6k/fpu\libm.a(lib_a-e_pow.o) (__ieee754_sqrt)
c:/devkitpro/devkitarm/bin/../lib/gcc/arm-none-eabi/4.9.2/../../../../arm-none-eabi/lib/armv6k/fpu\libm.a(lib_a-kf_cos.o)
                              c:/devkitpro/devkitarm/bin/../lib/gcc/arm-none-eabi/4.9.2/../../../../arm-none-eabi/lib/armv6k/fpu\libm.a(lib_a-sf_cos.o) (__kernel_cosf)
c:/devkitpro/devkitarm/bin/../lib/gcc/arm-none-eabi/4.9.2/../../../../arm-none-eabi/lib/armv6k/fpu\libm.a(lib_a-kf_rem_pio2.o)
                              c:/devkitpro/devkitarm/bin/../lib/gcc/arm-none-eabi/4.9.2/../../../../arm-none-eabi/lib/armv6k/fpu\libm.a(lib_a-ef_rem_pio2.o) (__kernel_rem_pio2f)
c:/devkitpro/devkitarm/bin/../lib/gcc/arm-none-eabi/4.9.2/../../../../arm-none-eabi/lib/armv6k/fpu\libm.a(lib_a-kf_sin.o)
                              c:/devkitpro/devkitarm/bin/../lib/gcc/arm-none-eabi/4.9.2/../../../../arm-none-eabi/lib/armv6k/fpu\libm.a(lib_a-sf_cos.o) (__kernel_sinf)
c:/devkitpro/devkitarm/bin/../lib/gcc/arm-none-eabi/4.9.2/../../../../arm-none-eabi/lib/armv6k/fpu\libm.a(lib_a-s_fabs.o)
                              c:/devkitpro/devkitarm/bin/../lib/gcc/arm-none-eabi/4.9.2/../../../../arm-none-eabi/lib/armv6k/fpu\libm.a(lib_a-e_pow.o) (fabs)
c:/devkitpro/devkitarm/bin/../lib/gcc/arm-none-eabi/4.9.2/../../../../arm-none-eabi/lib/armv6k/fpu\libm.a(lib_a-sf_fabs.o)
                              c:/devkitpro/devkitarm/bin/../lib/gcc/arm-none-eabi/4.9.2/../../../../arm-none-eabi/lib/armv6k/fpu\libm.a(lib_a-ef_rem_pio2.o) (fabsf)
c:/devkitpro/devkitarm/bin/../lib/gcc/arm-none-eabi/4.9.2/../../../../arm-none-eabi/lib/armv6k/fpu\libm.a(lib_a-sf_floor.o)
                              c:/devkitpro/devkitarm/bin/../lib/gcc/arm-none-eabi/4.9.2/../../../../arm-none-eabi/lib/armv6k/fpu\libm.a(lib_a-kf_rem_pio2.o) (floorf)
c:/devkitpro/devkitarm/bin/../lib/gcc/arm-none-eabi/4.9.2/../../../../arm-none-eabi/lib/armv6k/fpu\libm.a(lib_a-s_finite.o)
                              c:/devkitpro/devkitarm/bin/../lib/gcc/arm-none-eabi/4.9.2/../../../../arm-none-eabi/lib/armv6k/fpu\libm.a(lib_a-w_pow.o) (finite)
c:/devkitpro/devkitarm/bin/../lib/gcc/arm-none-eabi/4.9.2/../../../../arm-none-eabi/lib/armv6k/fpu\libm.a(lib_a-s_fpclassify.o)
                              c:/devkitpro/devkitarm/bin/../lib/gcc/arm-none-eabi/4.9.2/../../../../arm-none-eabi/lib/armv6k/fpu\libm.a(lib_a-w_pow.o) (__fpclassifyd)
c:/devkitpro/devkitarm/bin/../lib/gcc/arm-none-eabi/4.9.2/../../../../arm-none-eabi/lib/armv6k/fpu\libm.a(lib_a-sf_scalbn.o)
                              c:/devkitpro/devkitarm/bin/../lib/gcc/arm-none-eabi/4.9.2/../../../../arm-none-eabi/lib/armv6k/fpu\libm.a(lib_a-kf_rem_pio2.o) (scalbnf)
c:/devkitpro/devkitarm/bin/../lib/gcc/arm-none-eabi/4.9.2/../../../../arm-none-eabi/lib/armv6k/fpu\libm.a(lib_a-s_lib_ver.o)
                              c:/devkitpro/devkitarm/bin/../lib/gcc/arm-none-eabi/4.9.2/../../../../arm-none-eabi/lib/armv6k/fpu\libm.a(lib_a-w_pow.o) (__fdlib_version)
c:/devkitpro/devkitarm/bin/../lib/gcc/arm-none-eabi/4.9.2/../../../../arm-none-eabi/lib/armv6k/fpu\libm.a(lib_a-s_matherr.o)
                              c:/devkitpro/devkitarm/bin/../lib/gcc/arm-none-eabi/4.9.2/../../../../arm-none-eabi/lib/armv6k/fpu\libm.a(lib_a-w_pow.o) (matherr)
c:/devkitpro/devkitarm/bin/../lib/gcc/arm-none-eabi/4.9.2/../../../../arm-none-eabi/lib/armv6k/fpu\libm.a(lib_a-s_nan.o)
                              c:/devkitpro/devkitarm/bin/../lib/gcc/arm-none-eabi/4.9.2/../../../../arm-none-eabi/lib/armv6k/fpu\libm.a(lib_a-e_pow.o) (nan)
c:/devkitpro/devkitarm/bin/../lib/gcc/arm-none-eabi/4.9.2/../../../../arm-none-eabi/lib/armv6k/fpu\libm.a(lib_a-s_rint.o)
                              c:/devkitpro/devkitarm/bin/../lib/gcc/arm-none-eabi/4.9.2/../../../../arm-none-eabi/lib/armv6k/fpu\libm.a(lib_a-w_pow.o) (rint)
c:/devkitpro/devkitarm/bin/../lib/gcc/arm-none-eabi/4.9.2/../../../../arm-none-eabi/lib/armv6k/fpu\libm.a(lib_a-s_scalbn.o)
                              c:/devkitpro/devkitarm/bin/../lib/gcc/arm-none-eabi/4.9.2/../../../../arm-none-eabi/lib/armv6k/fpu\libm.a(lib_a-e_pow.o) (scalbn)
c:/devkitpro/devkitarm/bin/../lib/gcc/arm-none-eabi/4.9.2/../../../../arm-none-eabi/lib/armv6k/fpu\libm.a(lib_a-s_copysign.o)
                              c:/devkitpro/devkitarm/bin/../lib/gcc/arm-none-eabi/4.9.2/../../../../arm-none-eabi/lib/armv6k/fpu\libm.a(lib_a-s_scalbn.o) (copysign)
c:/devkitpro/devkitarm/bin/../lib/gcc/arm-none-eabi/4.9.2/../../../../arm-none-eabi/lib/armv6k/fpu\libm.a(lib_a-sf_copysign.o)
                              c:/devkitpro/devkitarm/bin/../lib/gcc/arm-none-eabi/4.9.2/../../../../arm-none-eabi/lib/armv6k/fpu\libm.a(lib_a-sf_scalbn.o) (copysignf)
c:/devkitpro/devkitarm/bin/../lib/gcc/arm-none-eabi/4.9.2/armv6k/fpu\libgcc.a(_udivsi3.o)
                              c:/devkitPro/portlibs/armv6k/lib\libpng.a(png.o) (__aeabi_uidiv)
c:/devkitpro/devkitarm/bin/../lib/gcc/arm-none-eabi/4.9.2/armv6k/fpu\libgcc.a(_divsi3.o)
                              mylib.o (__aeabi_idiv)
c:/devkitpro/devkitarm/bin/../lib/gcc/arm-none-eabi/4.9.2/armv6k/fpu\libgcc.a(_dvmd_tls.o)
                              c:/devkitpro/devkitarm/bin/../lib/gcc/arm-none-eabi/4.9.2/armv6k/fpu\libgcc.a(_udivsi3.o) (__aeabi_idiv0)
c:/devkitpro/devkitarm/bin/../lib/gcc/arm-none-eabi/4.9.2/armv6k/fpu\libgcc.a(_arm_addsubsf3.o)
                              c:/devkitPro/libctru/lib\libsf2d.a(sf2d.o) (__aeabi_ul2f)
c:/devkitpro/devkitarm/bin/../lib/gcc/arm-none-eabi/4.9.2/../../../../arm-none-eabi/lib/armv6k/fpu\libg.a(lib_a-abort.o)
                              c:/devkitPro/portlibs/armv6k/lib\libpng.a(pngerror.o) (abort)
c:/devkitpro/devkitarm/bin/../lib/gcc/arm-none-eabi/4.9.2/../../../../arm-none-eabi/lib/armv6k/fpu\libg.a(lib_a-atof.o)
                              c:/devkitPro/portlibs/armv6k/lib\libpng.a(pngget.o) (atof)
c:/devkitpro/devkitarm/bin/../lib/gcc/arm-none-eabi/4.9.2/../../../../arm-none-eabi/lib/armv6k/fpu\libg.a(lib_a-bsearch.o)
                              c:/devkitPro/libctru/lib\libctru.a(sdmc_dev.o) (bsearch)
c:/devkitpro/devkitarm/bin/../lib/gcc/arm-none-eabi/4.9.2/../../../../arm-none-eabi/lib/armv6k/fpu\libg.a(lib_a-errno.o)
                              c:/devkitPro/portlibs/armv6k/lib\libpng.a(pngread.o) (__errno)
c:/devkitpro/devkitarm/bin/../lib/gcc/arm-none-eabi/4.9.2/../../../../arm-none-eabi/lib/armv6k/fpu\libg.a(lib_a-exit.o)
                              mylib.o (exit)
c:/devkitpro/devkitarm/bin/../lib/gcc/arm-none-eabi/4.9.2/../../../../arm-none-eabi/lib/armv6k/fpu\libg.a(lib_a-fclose.o)
                              c:/devkitPro/libctru/lib\libsfil.a(sfil_png.o) (fclose)
c:/devkitpro/devkitarm/bin/../lib/gcc/arm-none-eabi/4.9.2/../../../../arm-none-eabi/lib/armv6k/fpu\libg.a(lib_a-fflush.o)
                              c:/devkitpro/devkitarm/bin/../lib/gcc/arm-none-eabi/4.9.2/../../../../arm-none-eabi/lib/armv6k/fpu\libg.a(lib_a-fclose.o) (__sflush_r)
c:/devkitpro/devkitarm/bin/../lib/gcc/arm-none-eabi/4.9.2/../../../../arm-none-eabi/lib/armv6k/fpu\libg.a(lib_a-findfp.o)
                              c:/devkitpro/devkitarm/bin/../lib/gcc/arm-none-eabi/4.9.2/../../../../arm-none-eabi/lib/armv6k/fpu\libg.a(lib_a-fclose.o) (__sinit)
c:/devkitpro/devkitarm/bin/../lib/gcc/arm-none-eabi/4.9.2/../../../../arm-none-eabi/lib/armv6k/fpu\libg.a(lib_a-fini.o)
                              c:/devkitPro/libctru/lib\libctru.a(stack_adjust.o) (__libc_fini_array)
c:/devkitpro/devkitarm/bin/../lib/gcc/arm-none-eabi/4.9.2/../../../../arm-none-eabi/lib/armv6k/fpu\libg.a(lib_a-fopen.o)
                              c:/devkitPro/libctru/lib\libsfil.a(sfil_png.o) (fopen)
c:/devkitpro/devkitarm/bin/../lib/gcc/arm-none-eabi/4.9.2/../../../../arm-none-eabi/lib/armv6k/fpu\libg.a(lib_a-fprintf.o)
                              c:/devkitPro/portlibs/armv6k/lib\libpng.a(pngerror.o) (fprintf)
c:/devkitpro/devkitarm/bin/../lib/gcc/arm-none-eabi/4.9.2/../../../../arm-none-eabi/lib/armv6k/fpu\libg.a(lib_a-fputc.o)
                              c:/devkitPro/portlibs/armv6k/lib\libpng.a(pngerror.o) (fputc)
c:/devkitpro/devkitarm/bin/../lib/gcc/arm-none-eabi/4.9.2/../../../../arm-none-eabi/lib/armv6k/fpu\libg.a(lib_a-fread.o)
                              c:/devkitPro/libctru/lib\libsfil.a(sfil_png.o) (fread)
c:/devkitpro/devkitarm/bin/../lib/gcc/arm-none-eabi/4.9.2/../../../../arm-none-eabi/lib/armv6k/fpu\libg.a(lib_a-freer.o)
                              c:/devkitpro/devkitarm/bin/../lib/gcc/arm-none-eabi/4.9.2/../../../../arm-none-eabi/lib/armv6k/fpu\libg.a(lib_a-fclose.o) (_free_r)
c:/devkitpro/devkitarm/bin/../lib/gcc/arm-none-eabi/4.9.2/../../../../arm-none-eabi/lib/armv6k/fpu\libg.a(lib_a-fseek.o)
                              c:/devkitpro/devkitarm/bin/../lib/gcc/arm-none-eabi/4.9.2/../../../../arm-none-eabi/lib/armv6k/fpu\libg.a(lib_a-fopen.o) (_fseek_r)
c:/devkitpro/devkitarm/bin/../lib/gcc/arm-none-eabi/4.9.2/../../../../arm-none-eabi/lib/armv6k/fpu\libg.a(lib_a-fseeko.o)
                              c:/devkitpro/devkitarm/bin/../lib/gcc/arm-none-eabi/4.9.2/../../../../arm-none-eabi/lib/armv6k/fpu\libg.a(lib_a-fseek.o) (_fseeko_r)
c:/devkitpro/devkitarm/bin/../lib/gcc/arm-none-eabi/4.9.2/../../../../arm-none-eabi/lib/armv6k/fpu\libg.a(lib_a-fwalk.o)
                              c:/devkitpro/devkitarm/bin/../lib/gcc/arm-none-eabi/4.9.2/../../../../arm-none-eabi/lib/armv6k/fpu\libg.a(lib_a-findfp.o) (_fwalk)
c:/devkitpro/devkitarm/bin/../lib/gcc/arm-none-eabi/4.9.2/../../../../arm-none-eabi/lib/armv6k/fpu\libg.a(lib_a-fwrite.o)
                              mylib.o (fwrite)
c:/devkitpro/devkitarm/bin/../lib/gcc/arm-none-eabi/4.9.2/../../../../arm-none-eabi/lib/armv6k/fpu\libg.a(lib_a-gmtime.o)
                              c:/devkitPro/portlibs/armv6k/lib\libpng.a(pngwrite.o) (gmtime)
c:/devkitpro/devkitarm/bin/../lib/gcc/arm-none-eabi/4.9.2/../../../../arm-none-eabi/lib/armv6k/fpu\libg.a(lib_a-gmtime_r.o)
                              c:/devkitpro/devkitarm/bin/../lib/gcc/arm-none-eabi/4.9.2/../../../../arm-none-eabi/lib/armv6k/fpu\libg.a(lib_a-gmtime.o) (gmtime_r)
c:/devkitpro/devkitarm/bin/../lib/gcc/arm-none-eabi/4.9.2/../../../../arm-none-eabi/lib/armv6k/fpu\libg.a(lib_a-impure.o)
                              c:/devkitpro/devkitarm/bin/../lib/gcc/arm-none-eabi/4.9.2/../../../../arm-none-eabi/lib/armv6k/fpu\libg.a(lib_a-exit.o) (_global_impure_ptr)
c:/devkitpro/devkitarm/bin/../lib/gcc/arm-none-eabi/4.9.2/../../../../arm-none-eabi/lib/armv6k/fpu\libg.a(lib_a-init.o)
                              c:/devkitPro/libctru/lib\libctru.a(stack_adjust.o) (__libc_init_array)
c:/devkitpro/devkitarm/bin/../lib/gcc/arm-none-eabi/4.9.2/../../../../arm-none-eabi/lib/armv6k/fpu\libg.a(lib_a-makebuf.o)
                              c:/devkitpro/devkitarm/bin/../lib/gcc/arm-none-eabi/4.9.2/../../../../arm-none-eabi/lib/armv6k/fpu\libg.a(lib_a-fseeko.o) (__smakebuf_r)
c:/devkitpro/devkitarm/bin/../lib/gcc/arm-none-eabi/4.9.2/../../../../arm-none-eabi/lib/armv6k/fpu\libg.a(lib_a-malloc.o)
                              gfx.o (malloc)
c:/devkitpro/devkitarm/bin/../lib/gcc/arm-none-eabi/4.9.2/../../../../arm-none-eabi/lib/armv6k/fpu\libg.a(lib_a-mallocr.o)
                              c:/devkitpro/devkitarm/bin/../lib/gcc/arm-none-eabi/4.9.2/../../../../arm-none-eabi/lib/armv6k/fpu\libg.a(lib_a-findfp.o) (_malloc_r)
c:/devkitpro/devkitarm/bin/../lib/gcc/arm-none-eabi/4.9.2/../../../../arm-none-eabi/lib/armv6k/fpu\libg.a(lib_a-memcmp.o)
                              c:/devkitPro/portlibs/armv6k/lib\libpng.a(png.o) (memcmp)
c:/devkitpro/devkitarm/bin/../lib/gcc/arm-none-eabi/4.9.2/../../../../arm-none-eabi/lib/armv6k/fpu\libg.a(lib_a-memcpy.o)
                              c:/devkitPro/libctru/lib\libsfil.a(sfil_png.o) (memcpy)
c:/devkitpro/devkitarm/bin/../lib/gcc/arm-none-eabi/4.9.2/../../../../arm-none-eabi/lib/armv6k/fpu\libg.a(lib_a-memset.o)
                              sudoku.o (memset)
c:/devkitpro/devkitarm/bin/../lib/gcc/arm-none-eabi/4.9.2/../../../../arm-none-eabi/lib/armv6k/fpu\libg.a(lib_a-mlock.o)
                              c:/devkitpro/devkitarm/bin/../lib/gcc/arm-none-eabi/4.9.2/../../../../arm-none-eabi/lib/armv6k/fpu\libg.a(lib_a-freer.o) (__malloc_lock)
c:/devkitpro/devkitarm/bin/../lib/gcc/arm-none-eabi/4.9.2/../../../../arm-none-eabi/lib/armv6k/fpu\libg.a(lib_a-month_lengths.o)
                              c:/devkitpro/devkitarm/bin/../lib/gcc/arm-none-eabi/4.9.2/../../../../arm-none-eabi/lib/armv6k/fpu\libg.a(lib_a-gmtime_r.o) (__month_lengths)
c:/devkitpro/devkitarm/bin/../lib/gcc/arm-none-eabi/4.9.2/../../../../arm-none-eabi/lib/armv6k/fpu\libg.a(lib_a-printf.o)
                              sudoku.o (printf)
c:/devkitpro/devkitarm/bin/../lib/gcc/arm-none-eabi/4.9.2/../../../../arm-none-eabi/lib/armv6k/fpu\libg.a(lib_a-putchar.o)
                              sudoku.o (putchar)
c:/devkitpro/devkitarm/bin/../lib/gcc/arm-none-eabi/4.9.2/../../../../arm-none-eabi/lib/armv6k/fpu\libg.a(lib_a-putc.o)
                              c:/devkitpro/devkitarm/bin/../lib/gcc/arm-none-eabi/4.9.2/../../../../arm-none-eabi/lib/armv6k/fpu\libg.a(lib_a-fputc.o) (_putc_r)
c:/devkitpro/devkitarm/bin/../lib/gcc/arm-none-eabi/4.9.2/../../../../arm-none-eabi/lib/armv6k/fpu\libg.a(lib_a-rand.o)
                              sudoku.o (srand)
c:/devkitpro/devkitarm/bin/../lib/gcc/arm-none-eabi/4.9.2/../../../../arm-none-eabi/lib/armv6k/fpu\libg.a(lib_a-realloc.o)
                              mylib.o (realloc)
c:/devkitpro/devkitarm/bin/../lib/gcc/arm-none-eabi/4.9.2/../../../../arm-none-eabi/lib/armv6k/fpu\libg.a(lib_a-reallocr.o)
                              c:/devkitpro/devkitarm/bin/../lib/gcc/arm-none-eabi/4.9.2/../../../../arm-none-eabi/lib/armv6k/fpu\libg.a(lib_a-realloc.o) (_realloc_r)
c:/devkitpro/devkitarm/bin/../lib/gcc/arm-none-eabi/4.9.2/../../../../arm-none-eabi/lib/armv6k/fpu\libg.a(lib_a-refill.o)
                              c:/devkitpro/devkitarm/bin/../lib/gcc/arm-none-eabi/4.9.2/../../../../arm-none-eabi/lib/armv6k/fpu\libg.a(lib_a-fread.o) (__srefill_r)
c:/devkitpro/devkitarm/bin/../lib/gcc/arm-none-eabi/4.9.2/../../../../arm-none-eabi/lib/armv6k/fpu\libg.a(lib_a-remove.o)
                              c:/devkitPro/portlibs/armv6k/lib\libpng.a(pngwrite.o) (remove)
c:/devkitpro/devkitarm/bin/../lib/gcc/arm-none-eabi/4.9.2/../../../../arm-none-eabi/lib/armv6k/fpu\libg.a(lib_a-setjmp.o)
                              c:/devkitPro/libctru/lib\libsfil.a(sfil_png.o) (setjmp)
c:/devkitpro/devkitarm/bin/../lib/gcc/arm-none-eabi/4.9.2/../../../../arm-none-eabi/lib/armv6k/fpu\libg.a(lib_a-signal.o)
                              c:/devkitpro/devkitarm/bin/../lib/gcc/arm-none-eabi/4.9.2/../../../../arm-none-eabi/lib/armv6k/fpu\libg.a(lib_a-abort.o) (raise)
c:/devkitpro/devkitarm/bin/../lib/gcc/arm-none-eabi/4.9.2/../../../../arm-none-eabi/lib/armv6k/fpu\libg.a(lib_a-stdio.o)
                              c:/devkitpro/devkitarm/bin/../lib/gcc/arm-none-eabi/4.9.2/../../../../arm-none-eabi/lib/armv6k/fpu\libg.a(lib_a-findfp.o) (__sread)
c:/devkitpro/devkitarm/bin/../lib/gcc/arm-none-eabi/4.9.2/../../../../arm-none-eabi/lib/armv6k/fpu\libg.a(lib_a-strcmp.o)
                              c:/devkitPro/libctru/lib\libctru.a(shbin.o) (strcmp)
c:/devkitpro/devkitarm/bin/../lib/gcc/arm-none-eabi/4.9.2/../../../../arm-none-eabi/lib/armv6k/fpu\libg.a(lib_a-strcpy.o)
                              c:/devkitPro/libctru/lib\libctru.a(srv.o) (strcpy)
c:/devkitpro/devkitarm/bin/../lib/gcc/arm-none-eabi/4.9.2/../../../../arm-none-eabi/lib/armv6k/fpu\libg.a(lib_a-strerror.o)
                              c:/devkitPro/portlibs/armv6k/lib\libpng.a(pngread.o) (strerror)
c:/devkitpro/devkitarm/bin/../lib/gcc/arm-none-eabi/4.9.2/../../../../arm-none-eabi/lib/armv6k/fpu\libg.a(lib_a-strlen.o)
                              c:/devkitPro/portlibs/armv6k/lib\libpng.a(pngrutil.o) (strlen)
c:/devkitpro/devkitarm/bin/../lib/gcc/arm-none-eabi/4.9.2/../../../../arm-none-eabi/lib/armv6k/fpu\libg.a(lib_a-strncat.o)
                              c:/devkitPro/libctru/lib\libctru.a(sdmc_dev.o) (strncat)
c:/devkitpro/devkitarm/bin/../lib/gcc/arm-none-eabi/4.9.2/../../../../arm-none-eabi/lib/armv6k/fpu\libg.a(lib_a-strncpy.o)
                              c:/devkitPro/libctru/lib\libctru.a(sdmc_dev.o) (strncpy)
c:/devkitpro/devkitarm/bin/../lib/gcc/arm-none-eabi/4.9.2/../../../../arm-none-eabi/lib/armv6k/fpu\libg.a(lib_a-strtod.o)
                              c:/devkitpro/devkitarm/bin/../lib/gcc/arm-none-eabi/4.9.2/../../../../arm-none-eabi/lib/armv6k/fpu\libg.a(lib_a-atof.o) (strtod)
c:/devkitpro/devkitarm/bin/../lib/gcc/arm-none-eabi/4.9.2/../../../../arm-none-eabi/lib/armv6k/fpu\libg.a(lib_a-time.o)
                              sudoku.o (time)
c:/devkitpro/devkitarm/bin/../lib/gcc/arm-none-eabi/4.9.2/../../../../arm-none-eabi/lib/armv6k/fpu\libg.a(lib_a-u_strerr.o)
                              c:/devkitpro/devkitarm/bin/../lib/gcc/arm-none-eabi/4.9.2/../../../../arm-none-eabi/lib/armv6k/fpu\libg.a(lib_a-strerror.o) (_user_strerror)
c:/devkitpro/devkitarm/bin/../lib/gcc/arm-none-eabi/4.9.2/../../../../arm-none-eabi/lib/armv6k/fpu\libg.a(lib_a-vfprintf.o)
                              c:/devkitpro/devkitarm/bin/../lib/gcc/arm-none-eabi/4.9.2/../../../../arm-none-eabi/lib/armv6k/fpu\libg.a(lib_a-fprintf.o) (_vfprintf_r)
c:/devkitpro/devkitarm/bin/../lib/gcc/arm-none-eabi/4.9.2/../../../../arm-none-eabi/lib/armv6k/fpu\libg.a(lib_a-wbuf.o)
                              c:/devkitpro/devkitarm/bin/../lib/gcc/arm-none-eabi/4.9.2/../../../../arm-none-eabi/lib/armv6k/fpu\libg.a(lib_a-putc.o) (__swbuf_r)
c:/devkitpro/devkitarm/bin/../lib/gcc/arm-none-eabi/4.9.2/../../../../arm-none-eabi/lib/armv6k/fpu\libg.a(lib_a-wcrtomb.o)
                              c:/devkitpro/devkitarm/bin/../lib/gcc/arm-none-eabi/4.9.2/../../../../arm-none-eabi/lib/armv6k/fpu\libg.a(lib_a-vfprintf.o) (_wcrtomb_r)
c:/devkitpro/devkitarm/bin/../lib/gcc/arm-none-eabi/4.9.2/../../../../arm-none-eabi/lib/armv6k/fpu\libg.a(lib_a-wcsrtombs.o)
                              c:/devkitpro/devkitarm/bin/../lib/gcc/arm-none-eabi/4.9.2/../../../../arm-none-eabi/lib/armv6k/fpu\libg.a(lib_a-vfprintf.o) (_wcsrtombs_r)
c:/devkitpro/devkitarm/bin/../lib/gcc/arm-none-eabi/4.9.2/../../../../arm-none-eabi/lib/armv6k/fpu\libg.a(lib_a-wctomb_r.o)
                              c:/devkitpro/devkitarm/bin/../lib/gcc/arm-none-eabi/4.9.2/../../../../arm-none-eabi/lib/armv6k/fpu\libg.a(lib_a-wcrtomb.o) (__wctomb)
c:/devkitpro/devkitarm/bin/../lib/gcc/arm-none-eabi/4.9.2/../../../../arm-none-eabi/lib/armv6k/fpu\libg.a(lib_a-wsetup.o)
                              c:/devkitpro/devkitarm/bin/../lib/gcc/arm-none-eabi/4.9.2/../../../../arm-none-eabi/lib/armv6k/fpu\libg.a(lib_a-vfprintf.o) (__swsetup_r)
c:/devkitpro/devkitarm/bin/../lib/gcc/arm-none-eabi/4.9.2/../../../../arm-none-eabi/lib/armv6k/fpu\libg.a(lib_a-__call_atexit.o)
                              c:/devkitpro/devkitarm/bin/../lib/gcc/arm-none-eabi/4.9.2/../../../../arm-none-eabi/lib/armv6k/fpu\libg.a(lib_a-exit.o) (__call_exitprocs)
c:/devkitpro/devkitarm/bin/../lib/gcc/arm-none-eabi/4.9.2/../../../../arm-none-eabi/lib/armv6k/fpu\libg.a(lib_a-dtoa.o)
                              c:/devkitpro/devkitarm/bin/../lib/gcc/arm-none-eabi/4.9.2/../../../../arm-none-eabi/lib/armv6k/fpu\libg.a(lib_a-vfprintf.o) (_dtoa_r)
c:/devkitpro/devkitarm/bin/../lib/gcc/arm-none-eabi/4.9.2/../../../../arm-none-eabi/lib/armv6k/fpu\libg.a(lib_a-flags.o)
                              c:/devkitpro/devkitarm/bin/../lib/gcc/arm-none-eabi/4.9.2/../../../../arm-none-eabi/lib/armv6k/fpu\libg.a(lib_a-fopen.o) (__sflags)
c:/devkitpro/devkitarm/bin/../lib/gcc/arm-none-eabi/4.9.2/../../../../arm-none-eabi/lib/armv6k/fpu\libg.a(lib_a-fvwrite.o)
                              c:/devkitpro/devkitarm/bin/../lib/gcc/arm-none-eabi/4.9.2/../../../../arm-none-eabi/lib/armv6k/fpu\libg.a(lib_a-fwrite.o) (__sfvwrite_r)
c:/devkitpro/devkitarm/bin/../lib/gcc/arm-none-eabi/4.9.2/../../../../arm-none-eabi/lib/armv6k/fpu\libg.a(lib_a-gdtoa-gethex.o)
                              c:/devkitpro/devkitarm/bin/../lib/gcc/arm-none-eabi/4.9.2/../../../../arm-none-eabi/lib/armv6k/fpu\libg.a(lib_a-strtod.o) (__gethex)
c:/devkitpro/devkitarm/bin/../lib/gcc/arm-none-eabi/4.9.2/../../../../arm-none-eabi/lib/armv6k/fpu\libg.a(lib_a-gdtoa-hexnan.o)
                              c:/devkitpro/devkitarm/bin/../lib/gcc/arm-none-eabi/4.9.2/../../../../arm-none-eabi/lib/armv6k/fpu\libg.a(lib_a-strtod.o) (__hexnan)
c:/devkitpro/devkitarm/bin/../lib/gcc/arm-none-eabi/4.9.2/../../../../arm-none-eabi/lib/armv6k/fpu\libg.a(lib_a-locale.o)
                              c:/devkitpro/devkitarm/bin/../lib/gcc/arm-none-eabi/4.9.2/../../../../arm-none-eabi/lib/armv6k/fpu\libg.a(lib_a-vfprintf.o) (__locale_charset)
c:/devkitpro/devkitarm/bin/../lib/gcc/arm-none-eabi/4.9.2/../../../../arm-none-eabi/lib/armv6k/fpu\libg.a(lib_a-mbtowc_r.o)
                              c:/devkitpro/devkitarm/bin/../lib/gcc/arm-none-eabi/4.9.2/../../../../arm-none-eabi/lib/armv6k/fpu\libg.a(lib_a-locale.o) (__utf8_mbtowc)
c:/devkitpro/devkitarm/bin/../lib/gcc/arm-none-eabi/4.9.2/../../../../arm-none-eabi/lib/armv6k/fpu\libg.a(lib_a-memchr.o)
                              c:/devkitpro/devkitarm/bin/../lib/gcc/arm-none-eabi/4.9.2/../../../../arm-none-eabi/lib/armv6k/fpu\libg.a(lib_a-vfprintf.o) (memchr)
c:/devkitpro/devkitarm/bin/../lib/gcc/arm-none-eabi/4.9.2/../../../../arm-none-eabi/lib/armv6k/fpu\libg.a(lib_a-memmove.o)
                              c:/devkitpro/devkitarm/bin/../lib/gcc/arm-none-eabi/4.9.2/../../../../arm-none-eabi/lib/armv6k/fpu\libg.a(lib_a-reallocr.o) (memmove)
c:/devkitpro/devkitarm/bin/../lib/gcc/arm-none-eabi/4.9.2/../../../../arm-none-eabi/lib/armv6k/fpu\libg.a(lib_a-mprec.o)
                              c:/devkitpro/devkitarm/bin/../lib/gcc/arm-none-eabi/4.9.2/../../../../arm-none-eabi/lib/armv6k/fpu\libg.a(lib_a-strtod.o) (_Balloc)
c:/devkitpro/devkitarm/bin/../lib/gcc/arm-none-eabi/4.9.2/../../../../arm-none-eabi/lib/armv6k/fpu\libg.a(lib_a-sf_nan.o)
                              c:/devkitpro/devkitarm/bin/../lib/gcc/arm-none-eabi/4.9.2/../../../../arm-none-eabi/lib/armv6k/fpu\libg.a(lib_a-strtod.o) (nanf)
c:/devkitpro/devkitarm/bin/../lib/gcc/arm-none-eabi/4.9.2/../../../../arm-none-eabi/lib/armv6k/fpu\libg.a(lib_a-strcasecmp.o)
                              c:/devkitpro/devkitarm/bin/../lib/gcc/arm-none-eabi/4.9.2/../../../../arm-none-eabi/lib/armv6k/fpu\libg.a(lib_a-locale.o) (strcasecmp)
c:/devkitpro/devkitarm/bin/../lib/gcc/arm-none-eabi/4.9.2/../../../../arm-none-eabi/lib/armv6k/fpu\libg.a(lib_a-strcat.o)
                              c:/devkitpro/devkitarm/bin/../lib/gcc/arm-none-eabi/4.9.2/../../../../arm-none-eabi/lib/armv6k/fpu\libg.a(lib_a-locale.o) (strcat)
c:/devkitpro/devkitarm/bin/../lib/gcc/arm-none-eabi/4.9.2/../../../../arm-none-eabi/lib/armv6k/fpu\libg.a(lib_a-strchr.o)
                              c:/devkitpro/devkitarm/bin/../lib/gcc/arm-none-eabi/4.9.2/../../../../arm-none-eabi/lib/armv6k/fpu\libg.a(lib_a-locale.o) (strchr)
c:/devkitpro/devkitarm/bin/../lib/gcc/arm-none-eabi/4.9.2/../../../../arm-none-eabi/lib/armv6k/fpu\libg.a(lib_a-strlcpy.o)
                              c:/devkitpro/devkitarm/bin/../lib/gcc/arm-none-eabi/4.9.2/../../../../arm-none-eabi/lib/armv6k/fpu\libg.a(lib_a-locale.o) (strlcpy)
c:/devkitpro/devkitarm/bin/../lib/gcc/arm-none-eabi/4.9.2/../../../../arm-none-eabi/lib/armv6k/fpu\libg.a(lib_a-strncasecmp.o)
                              c:/devkitpro/devkitarm/bin/../lib/gcc/arm-none-eabi/4.9.2/../../../../arm-none-eabi/lib/armv6k/fpu\libg.a(lib_a-locale.o) (strncasecmp)
c:/devkitpro/devkitarm/bin/../lib/gcc/arm-none-eabi/4.9.2/../../../../arm-none-eabi/lib/armv6k/fpu\libg.a(lib_a-strncmp.o)
                              c:/devkitpro/devkitarm/bin/../lib/gcc/arm-none-eabi/4.9.2/../../../../arm-none-eabi/lib/armv6k/fpu\libg.a(lib_a-strtod.o) (strncmp)
c:/devkitpro/devkitarm/bin/../lib/gcc/arm-none-eabi/4.9.2/../../../../arm-none-eabi/lib/armv6k/fpu\libg.a(lib_a-strtol.o)
                              c:/devkitpro/devkitarm/bin/../lib/gcc/arm-none-eabi/4.9.2/../../../../arm-none-eabi/lib/armv6k/fpu\libg.a(lib_a-locale.o) (_strtol_r)
c:/devkitpro/devkitarm/bin/../lib/gcc/arm-none-eabi/4.9.2/../../../../arm-none-eabi/lib/armv6k/fpu\libg.a(lib_a-svfiprintf.o)
                              c:/devkitpro/devkitarm/bin/../lib/gcc/arm-none-eabi/4.9.2/../../../../arm-none-eabi/lib/armv6k/fpu\libg.a(lib_a-vfprintf.o) (__action_table)
c:/devkitpro/devkitarm/bin/../lib/gcc/arm-none-eabi/4.9.2/../../../../arm-none-eabi/lib/armv6k/fpu\libg.a(lib_a-vfiprintf.o)
                              c:/devkitpro/devkitarm/bin/../lib/gcc/arm-none-eabi/4.9.2/../../../../arm-none-eabi/lib/armv6k/fpu\libg.a(lib_a-vfprintf.o) (__sprint_r)
c:/devkitpro/devkitarm/bin/../lib/gcc/arm-none-eabi/4.9.2/../../../../arm-none-eabi/lib/armv6k/fpu\libg.a(lib_a-wcsnrtombs.o)
                              c:/devkitpro/devkitarm/bin/../lib/gcc/arm-none-eabi/4.9.2/../../../../arm-none-eabi/lib/armv6k/fpu\libg.a(lib_a-wcsrtombs.o) (_wcsnrtombs_r)
c:/devkitpro/devkitarm/bin/../lib/gcc/arm-none-eabi/4.9.2/../../../../arm-none-eabi/lib/armv6k/fpu\libg.a(lib_a-callocr.o)
                              c:/devkitpro/devkitarm/bin/../lib/gcc/arm-none-eabi/4.9.2/../../../../arm-none-eabi/lib/armv6k/fpu\libg.a(lib_a-mprec.o) (_calloc_r)
c:/devkitpro/devkitarm/bin/../lib/gcc/arm-none-eabi/4.9.2/../../../../arm-none-eabi/lib/armv6k/fpu\libg.a(lib_a-ctype_.o)
                              c:/devkitpro/devkitarm/bin/../lib/gcc/arm-none-eabi/4.9.2/../../../../arm-none-eabi/lib/armv6k/fpu\libg.a(lib_a-locale.o) (__set_ctype)
c:/devkitpro/devkitarm/bin/../lib/gcc/arm-none-eabi/4.9.2/../../../../arm-none-eabi/lib/armv6k/fpu\libg.a(lib_a-fputwc.o)
                              c:/devkitpro/devkitarm/bin/../lib/gcc/arm-none-eabi/4.9.2/../../../../arm-none-eabi/lib/armv6k/fpu\libg.a(lib_a-vfiprintf.o) (_fputwc_r)
c:/devkitpro/devkitarm/bin/../lib/gcc/arm-none-eabi/4.9.2/../../../../arm-none-eabi/lib/armv6k/fpu\libg.a(lib_a-getenv_r.o)
                              c:/devkitpro/devkitarm/bin/../lib/gcc/arm-none-eabi/4.9.2/../../../../arm-none-eabi/lib/armv6k/fpu\libg.a(lib_a-locale.o) (_getenv_r)
c:/devkitpro/devkitarm/bin/../lib/gcc/arm-none-eabi/4.9.2/../../../../arm-none-eabi/lib/armv6k/fpu\libg.a(lib_a-environ.o)
                              c:/devkitpro/devkitarm/bin/../lib/gcc/arm-none-eabi/4.9.2/../../../../arm-none-eabi/lib/armv6k/fpu\libg.a(lib_a-getenv_r.o) (environ)
c:/devkitpro/devkitarm/bin/../lib/gcc/arm-none-eabi/4.9.2/../../../../arm-none-eabi/lib/armv6k/fpu\libg.a(lib_a-envlock.o)
                              c:/devkitpro/devkitarm/bin/../lib/gcc/arm-none-eabi/4.9.2/../../../../arm-none-eabi/lib/armv6k/fpu\libg.a(lib_a-getenv_r.o) (__env_lock)
c:/devkitpro/devkitarm/bin/../lib/gcc/arm-none-eabi/4.9.2/../../../../arm-none-eabi/lib/armv6k/fpu\libsysbase.a(iosupport.o)
                              c:/devkitPro/libctru/lib\libctru.a(sdmc_dev.o) (setDefaultDevice)
c:/devkitpro/devkitarm/bin/../lib/gcc/arm-none-eabi/4.9.2/../../../../arm-none-eabi/lib/armv6k/fpu\libsysbase.a(close.o)
                              c:/devkitpro/devkitarm/bin/../lib/gcc/arm-none-eabi/4.9.2/../../../../arm-none-eabi/lib/armv6k/fpu\libg.a(lib_a-stdio.o) (_close_r)
c:/devkitpro/devkitarm/bin/../lib/gcc/arm-none-eabi/4.9.2/../../../../arm-none-eabi/lib/armv6k/fpu\libsysbase.a(fstat.o)
                              c:/devkitpro/devkitarm/bin/../lib/gcc/arm-none-eabi/4.9.2/../../../../arm-none-eabi/lib/armv6k/fpu\libg.a(lib_a-fseeko.o) (_fstat_r)
c:/devkitpro/devkitarm/bin/../lib/gcc/arm-none-eabi/4.9.2/../../../../arm-none-eabi/lib/armv6k/fpu\libsysbase.a(getpid.o)
                              c:/devkitpro/devkitarm/bin/../lib/gcc/arm-none-eabi/4.9.2/../../../../arm-none-eabi/lib/armv6k/fpu\libg.a(lib_a-signal.o) (_getpid_r)
c:/devkitpro/devkitarm/bin/../lib/gcc/arm-none-eabi/4.9.2/../../../../arm-none-eabi/lib/armv6k/fpu\libsysbase.a(gettod.o)
                              c:/devkitpro/devkitarm/bin/../lib/gcc/arm-none-eabi/4.9.2/../../../../arm-none-eabi/lib/armv6k/fpu\libg.a(lib_a-time.o) (_gettimeofday_r)
c:/devkitpro/devkitarm/bin/../lib/gcc/arm-none-eabi/4.9.2/../../../../arm-none-eabi/lib/armv6k/fpu\libsysbase.a(isatty.o)
                              c:/devkitpro/devkitarm/bin/../lib/gcc/arm-none-eabi/4.9.2/../../../../arm-none-eabi/lib/armv6k/fpu\libg.a(lib_a-makebuf.o) (_isatty_r)
c:/devkitpro/devkitarm/bin/../lib/gcc/arm-none-eabi/4.9.2/../../../../arm-none-eabi/lib/armv6k/fpu\libsysbase.a(kill.o)
                              c:/devkitpro/devkitarm/bin/../lib/gcc/arm-none-eabi/4.9.2/../../../../arm-none-eabi/lib/armv6k/fpu\libg.a(lib_a-signal.o) (_kill_r)
c:/devkitpro/devkitarm/bin/../lib/gcc/arm-none-eabi/4.9.2/../../../../arm-none-eabi/lib/armv6k/fpu\libsysbase.a(lseek.o)
                              c:/devkitpro/devkitarm/bin/../lib/gcc/arm-none-eabi/4.9.2/../../../../arm-none-eabi/lib/armv6k/fpu\libg.a(lib_a-stdio.o) (_lseek_r)
c:/devkitpro/devkitarm/bin/../lib/gcc/arm-none-eabi/4.9.2/../../../../arm-none-eabi/lib/armv6k/fpu\libsysbase.a(open.o)
                              c:/devkitpro/devkitarm/bin/../lib/gcc/arm-none-eabi/4.9.2/../../../../arm-none-eabi/lib/armv6k/fpu\libg.a(lib_a-fopen.o) (_open_r)
c:/devkitpro/devkitarm/bin/../lib/gcc/arm-none-eabi/4.9.2/../../../../arm-none-eabi/lib/armv6k/fpu\libsysbase.a(read.o)
                              c:/devkitpro/devkitarm/bin/../lib/gcc/arm-none-eabi/4.9.2/../../../../arm-none-eabi/lib/armv6k/fpu\libg.a(lib_a-stdio.o) (_read_r)
c:/devkitpro/devkitarm/bin/../lib/gcc/arm-none-eabi/4.9.2/../../../../arm-none-eabi/lib/armv6k/fpu\libsysbase.a(sbrk.o)
                              c:/devkitpro/devkitarm/bin/../lib/gcc/arm-none-eabi/4.9.2/../../../../arm-none-eabi/lib/armv6k/fpu\libg.a(lib_a-freer.o) (_sbrk_r)
c:/devkitpro/devkitarm/bin/../lib/gcc/arm-none-eabi/4.9.2/../../../../arm-none-eabi/lib/armv6k/fpu\libsysbase.a(unlink.o)
                              c:/devkitpro/devkitarm/bin/../lib/gcc/arm-none-eabi/4.9.2/../../../../arm-none-eabi/lib/armv6k/fpu\libg.a(lib_a-remove.o) (_unlink_r)
c:/devkitpro/devkitarm/bin/../lib/gcc/arm-none-eabi/4.9.2/../../../../arm-none-eabi/lib/armv6k/fpu\libsysbase.a(write.o)
                              c:/devkitpro/devkitarm/bin/../lib/gcc/arm-none-eabi/4.9.2/../../../../arm-none-eabi/lib/armv6k/fpu\libg.a(lib_a-stdio.o) (_write_r)
c:/devkitpro/devkitarm/bin/../lib/gcc/arm-none-eabi/4.9.2/../../../../arm-none-eabi/lib/armv6k/fpu\libsysbase.a(_exit.o)
                              c:/devkitpro/devkitarm/bin/../lib/gcc/arm-none-eabi/4.9.2/../../../../arm-none-eabi/lib/armv6k/fpu\libg.a(lib_a-abort.o) (_exit)
c:/devkitpro/devkitarm/bin/../lib/gcc/arm-none-eabi/4.9.2/../../../../arm-none-eabi/lib/armv6k/fpu\libsysbase.a(malloc_vars.o)
                              c:/devkitPro/libctru/lib\libctru.a(allocateHeaps.o) (fake_heap_start)
c:/devkitpro/devkitarm/bin/../lib/gcc/arm-none-eabi/4.9.2/../../../../arm-none-eabi/lib/armv6k/fpu\libsysbase.a(chdir.o)
                              c:/devkitPro/libctru/lib\libctru.a(sdmc_dev.o) (chdir)
c:/devkitpro/devkitarm/bin/../lib/gcc/arm-none-eabi/4.9.2/../../../../arm-none-eabi/lib/armv6k/fpu\libsysbase.a(flock.o)
                              c:/devkitpro/devkitarm/bin/../lib/gcc/arm-none-eabi/4.9.2/../../../../arm-none-eabi/lib/armv6k/fpu\libg.a(lib_a-fclose.o) (__flockfile)
c:/devkitpro/devkitarm/bin/../lib/gcc/arm-none-eabi/4.9.2/../../../../arm-none-eabi/lib/armv6k/fpu\libsysbase.a(syscall_support.o)
                              c:/devkitPro/libctru/lib\libctru.a(initSystem.o) (__syscalls)
c:/devkitpro/devkitarm/bin/../lib/gcc/arm-none-eabi/4.9.2/../../../../arm-none-eabi/lib/armv6k/fpu\libsysbase.a(handle_manager.o)
                              c:/devkitpro/devkitarm/bin/../lib/gcc/arm-none-eabi/4.9.2/../../../../arm-none-eabi/lib/armv6k/fpu\libsysbase.a(close.o) (__release_handle)
c:/devkitpro/devkitarm/bin/../lib/gcc/arm-none-eabi/4.9.2/../../../../arm-none-eabi/lib/armv6k/fpu\libsysbase.a(getreent.o)
                              mylib.o (__getreent)
c:/devkitpro/devkitarm/bin/../lib/gcc/arm-none-eabi/4.9.2/armv6k/fpu\libgcc.a(_aeabi_uldivmod.o)
                              c:/devkitpro/devkitarm/bin/../lib/gcc/arm-none-eabi/4.9.2/../../../../arm-none-eabi/lib/armv6k/fpu\libg.a(lib_a-vfprintf.o) (__aeabi_uldivmod)
c:/devkitpro/devkitarm/bin/../lib/gcc/arm-none-eabi/4.9.2/armv6k/fpu\libgcc.a(bpabi.o)
                              c:/devkitpro/devkitarm/bin/../lib/gcc/arm-none-eabi/4.9.2/armv6k/fpu\libgcc.a(_aeabi_uldivmod.o) (__gnu_uldivmod_helper)
c:/devkitpro/devkitarm/bin/../lib/gcc/arm-none-eabi/4.9.2/armv6k/fpu\libgcc.a(_divdi3.o)
                              c:/devkitpro/devkitarm/bin/../lib/gcc/arm-none-eabi/4.9.2/armv6k/fpu\libgcc.a(bpabi.o) (__divdi3)
c:/devkitpro/devkitarm/bin/../lib/gcc/arm-none-eabi/4.9.2/armv6k/fpu\libgcc.a(_udivdi3.o)
                              c:/devkitpro/devkitarm/bin/../lib/gcc/arm-none-eabi/4.9.2/armv6k/fpu\libgcc.a(bpabi.o) (__udivdi3)
c:/devkitpro/devkitarm/bin/../lib/gcc/arm-none-eabi/4.9.2/../../../../arm-none-eabi/lib/armv6k/fpu\libg.a(lib_a-strnlen.o)
                              c:/devkitpro/devkitarm/bin/../lib/gcc/arm-none-eabi/4.9.2/../../../../arm-none-eabi/lib/armv6k/fpu\libsysbase.a(chdir.o) (strnlen)
c:/devkitpro/devkitarm/bin/../lib/gcc/arm-none-eabi/4.9.2/../../../../arm-none-eabi/lib/armv6k/fpu\libg.a(lib_a-strrchr.o)
                              c:/devkitpro/devkitarm/bin/../lib/gcc/arm-none-eabi/4.9.2/../../../../arm-none-eabi/lib/armv6k/fpu\libsysbase.a(chdir.o) (strrchr)

Allocating common symbols
Common symbol       size              file

hidMemHandle        0x4               c:/devkitPro/libctru/lib\libctru.a(hid.o)
__heapBase          0x4               c:/devkitPro/libctru/lib\libctru.a(allocateHeaps.o)
aptEventHandlerThread
                    0x4               c:/devkitPro/libctru/lib\libctru.a(apt.o)
hidHandle           0x4               c:/devkitPro/libctru/lib\libctru.a(hid.o)
gspEventStack       0x1000            c:/devkitPro/libctru/lib\libctru.a(gsp.o)
gfxBottomFramebuffers
                    0x8               c:/devkitPro/libctru/lib\libctru.a(gfx.o)
gspSharedMemHandle  0x4               c:/devkitPro/libctru/lib\libctru.a(gfx.o)
__system_argv       0x4               c:/devkitPro/libctru/lib\libctru.a(initArgv.o)
hidSharedMem        0x4               c:/devkitPro/libctru/lib\libctru.a(hid.o)
__system_argc       0x4               c:/devkitPro/libctru/lib\libctru.a(initArgv.o)
bottomFramebufferInfo
                    0x1c              c:/devkitPro/libctru/lib\libctru.a(gfx.o)
__linear_heap       0x4               c:/devkitPro/libctru/lib\libctru.a(allocateHeaps.o)
aptParameters       0x1000            c:/devkitPro/libctru/lib\libctru.a(apt.o)
aptEventHandlerStack
                    0x1000            c:/devkitPro/libctru/lib\libctru.a(apt.o)
aptuHandle          0x4               c:/devkitPro/libctru/lib\libctru.a(apt.o)
irrstHandle         0x4               c:/devkitPro/libctru/lib\libctru.a(irrst.o)
aptEvents           0xc               c:/devkitPro/libctru/lib\libctru.a(apt.o)
gspEventThread      0x4               c:/devkitPro/libctru/lib\libctru.a(gsp.o)
gspEvent            0x4               c:/devkitPro/libctru/lib\libctru.a(gfx.o)
hidEvents           0x14              c:/devkitPro/libctru/lib\libctru.a(hid.o)
__system_retAddr    0x4               c:/devkitPro/libctru/lib\libctru.a(initSystem.o)
gpuCmdBuf           0x4               c:/devkitPro/libctru/lib\libctru.a(gpu.o)
irrstEvent          0x4               c:/devkitPro/libctru/lib\libctru.a(irrst.o)
gspEventCounts      0x1c              c:/devkitPro/libctru/lib\libctru.a(gsp.o)
irrstMemHandle      0x4               c:/devkitPro/libctru/lib\libctru.a(irrst.o)
gfxTopLeftFramebuffers
                    0x8               c:/devkitPro/libctru/lib\libctru.a(gfx.o)
gfxTopRightFramebuffers
                    0x8               c:/devkitPro/libctru/lib\libctru.a(gfx.o)
topFramebufferInfo  0x1c              c:/devkitPro/libctru/lib\libctru.a(gfx.o)
gspEvents           0x1c              c:/devkitPro/libctru/lib\libctru.a(gsp.o)
gpuCmdBufOffset     0x4               c:/devkitPro/libctru/lib\libctru.a(gpu.o)
gfxThreadID         0x1               c:/devkitPro/libctru/lib\libctru.a(gfx.o)
gfxSharedMemory     0x4               c:/devkitPro/libctru/lib\libctru.a(gfx.o)
gspRunEvents        0x1               c:/devkitPro/libctru/lib\libctru.a(gsp.o)
irrstSharedMem      0x4               c:/devkitPro/libctru/lib\libctru.a(irrst.o)
aptStatusMutex      0x4               c:/devkitPro/libctru/lib\libctru.a(apt.o)
gpuCmdBufSize       0x4               c:/devkitPro/libctru/lib\libctru.a(gpu.o)
gxCmdBuf            0x4               c:/devkitPro/libctru/lib\libctru.a(gx.o)
aptLockHandle       0x4               c:/devkitPro/libctru/lib\libctru.a(apt.o)
currentAppId        0x2               c:/devkitPro/libctru/lib\libctru.a(apt.o)

Discarded input sections

 .comment       0x00000000       0x23 c:/devkitpro/devkitarm/bin/../lib/gcc/arm-none-eabi/4.9.2/armv6k/fpu/crtbegin.o
 .comment       0x00000000       0x23 gfx.o
 .comment       0x00000000       0x23 main.o
 .comment       0x00000000       0x23 mylib.o
 .comment       0x00000000       0x23 sudoku.o
 .comment       0x00000000       0x23 c:/devkitPro/libctru/lib\libsfil.a(sfil_png.o)
 .comment       0x00000000       0x23 c:/devkitPro/portlibs/armv6k/lib\libpng.a(png.o)
 .comment       0x00000000       0x23 c:/devkitPro/portlibs/armv6k/lib\libpng.a(pngerror.o)
 .comment       0x00000000       0x23 c:/devkitPro/portlibs/armv6k/lib\libpng.a(pngget.o)
 .comment       0x00000000       0x23 c:/devkitPro/portlibs/armv6k/lib\libpng.a(pngmem.o)
 .comment       0x00000000       0x23 c:/devkitPro/portlibs/armv6k/lib\libpng.a(pngread.o)
 .comment       0x00000000       0x23 c:/devkitPro/portlibs/armv6k/lib\libpng.a(pngrio.o)
 .comment       0x00000000       0x23 c:/devkitPro/portlibs/armv6k/lib\libpng.a(pngrtran.o)
 .comment       0x00000000       0x23 c:/devkitPro/portlibs/armv6k/lib\libpng.a(pngrutil.o)
 .comment       0x00000000       0x23 c:/devkitPro/portlibs/armv6k/lib\libpng.a(pngset.o)
 .comment       0x00000000       0x23 c:/devkitPro/portlibs/armv6k/lib\libpng.a(pngtrans.o)
 .comment       0x00000000       0x23 c:/devkitPro/portlibs/armv6k/lib\libpng.a(pngwrite.o)
 .comment       0x00000000       0x23 c:/devkitPro/portlibs/armv6k/lib\libpng.a(pngwtran.o)
 .comment       0x00000000       0x23 c:/devkitPro/portlibs/armv6k/lib\libpng.a(pngwutil.o)
 .comment       0x00000000       0x23 c:/devkitPro/portlibs/armv6k/lib\libpng.a(pngwio.o)
 .comment       0x00000000       0x23 c:/devkitPro/portlibs/armv6k/lib\libz.a(adler32.o)
 .comment       0x00000000       0x23 c:/devkitPro/portlibs/armv6k/lib\libz.a(crc32.o)
 .comment       0x00000000       0x23 c:/devkitPro/portlibs/armv6k/lib\libz.a(deflate.o)
 .comment       0x00000000       0x23 c:/devkitPro/portlibs/armv6k/lib\libz.a(inflate.o)
 .comment       0x00000000       0x23 c:/devkitPro/portlibs/armv6k/lib\libz.a(inftrees.o)
 .comment       0x00000000       0x23 c:/devkitPro/portlibs/armv6k/lib\libz.a(trees.o)
 .comment       0x00000000       0x23 c:/devkitPro/portlibs/armv6k/lib\libz.a(zutil.o)
 .comment       0x00000000       0x23 c:/devkitPro/portlibs/armv6k/lib\libz.a(inffast.o)
 .comment       0x00000000       0x23 c:/devkitPro/libctru/lib\libsf2d.a(sf2d.o)
 .comment       0x00000000       0x23 c:/devkitPro/libctru/lib\libsf2d.a(sf2d_draw.o)
 .comment       0x00000000       0x23 c:/devkitPro/libctru/lib\libsf2d.a(sf2d_private.o)
 .comment       0x00000000       0x23 c:/devkitPro/libctru/lib\libsf2d.a(sf2d_texture.o)
 .comment       0x00000000       0x23 c:/devkitPro/libctru/lib\libctru.a(linear.o)
 .comment       0x00000000       0x23 c:/devkitPro/libctru/lib\libctru.a(mem_pool.o)
 .comment       0x00000000       0x23 c:/devkitPro/libctru/lib\libctru.a(vram.o)
 .comment       0x00000000       0x23 c:/devkitPro/libctru/lib\libctru.a(gfx.o)
 .comment       0x00000000       0x23 c:/devkitPro/libctru/lib\libctru.a(os.o)
 .comment       0x00000000       0x23 c:/devkitPro/libctru/lib\libctru.a(gpu.o)
 .comment       0x00000000       0x23 c:/devkitPro/libctru/lib\libctru.a(gpuResetSequence.o)
 .comment       0x00000000       0x23 c:/devkitPro/libctru/lib\libctru.a(shaderProgram.o)
 .comment       0x00000000       0x23 c:/devkitPro/libctru/lib\libctru.a(shbin.o)
 .comment       0x00000000       0x23 c:/devkitPro/libctru/lib\libctru.a(apt.o)
 .comment       0x00000000       0x23 c:/devkitPro/libctru/lib\libctru.a(gsp.o)
 .comment       0x00000000       0x23 c:/devkitPro/libctru/lib\libctru.a(gx.o)
 .comment       0x00000000       0x23 c:/devkitPro/libctru/lib\libctru.a(hid.o)
 .comment       0x00000000       0x23 c:/devkitPro/libctru/lib\libctru.a(irrst.o)
 .comment       0x00000000       0x23 c:/devkitPro/libctru/lib\libctru.a(rbtree_find.o)
 .comment       0x00000000       0x23 c:/devkitPro/libctru/lib\libctru.a(rbtree_init.o)
 .comment       0x00000000       0x23 c:/devkitPro/libctru/lib\libctru.a(rbtree_insert.o)
 .comment       0x00000000       0x23 c:/devkitPro/libctru/lib\libctru.a(rbtree_remove.o)
 .comment       0x00000000       0x23 c:/devkitPro/libctru/lib\libctru.a(rbtree_rotate.o)
 .comment       0x00000000       0x23 c:/devkitPro/libctru/lib\libctru.a(allocateHeaps.o)
 .comment       0x00000000       0x23 c:/devkitPro/libctru/lib\libctru.a(initArgv.o)
 .comment       0x00000000       0x23 c:/devkitPro/libctru/lib\libctru.a(initSystem.o)
 .comment       0x00000000       0x23 c:/devkitPro/libctru/lib\libctru.a(srv.o)
 .comment       0x00000000       0x23 c:/devkitPro/libctru/lib\libctru.a(rbtree_iterator.o)
 .comment       0x00000000       0x23 c:/devkitPro/libctru/lib\libctru.a(appExit.o)
 .comment       0x00000000       0x23 c:/devkitPro/libctru/lib\libctru.a(appInit.o)
 .comment       0x00000000       0x23 c:/devkitPro/libctru/lib\libctru.a(ctru_exit.o)
 .comment       0x00000000       0x23 c:/devkitPro/libctru/lib\libctru.a(sdmc_dev.o)
 .comment       0x00000000       0x23 c:/devkitPro/libctru/lib\libctru.a(fs.o)
 .comment       0x00000000       0x23 c:/devkitPro/libctru/lib\libctru.a(decode_utf8.o)
 .comment       0x00000000       0x23 c:/devkitPro/libctru/lib\libctru.a(utf16_to_utf8.o)
 .comment       0x00000000       0x23 c:/devkitPro/libctru/lib\libctru.a(utf8_to_utf16.o)
 .comment       0x00000000       0x23 c:/devkitPro/libctru/lib\libctru.a(decode_utf16.o)
 .comment       0x00000000       0x23 c:/devkitPro/libctru/lib\libctru.a(encode_utf16.o)
 .comment       0x00000000       0x23 c:/devkitPro/libctru/lib\libctru.a(encode_utf8.o)
 .comment       0x00000000       0x23 c:/devkitpro/devkitarm/bin/../lib/gcc/arm-none-eabi/4.9.2/../../../../arm-none-eabi/lib/armv6k/fpu\libm.a(lib_a-sf_cos.o)
 .comment       0x00000000       0x23 c:/devkitpro/devkitarm/bin/../lib/gcc/arm-none-eabi/4.9.2/../../../../arm-none-eabi/lib/armv6k/fpu\libm.a(lib_a-s_floor.o)
 .comment       0x00000000       0x23 c:/devkitpro/devkitarm/bin/../lib/gcc/arm-none-eabi/4.9.2/../../../../arm-none-eabi/lib/armv6k/fpu\libm.a(lib_a-s_frexp.o)
 .comment       0x00000000       0x23 c:/devkitpro/devkitarm/bin/../lib/gcc/arm-none-eabi/4.9.2/../../../../arm-none-eabi/lib/armv6k/fpu\libm.a(lib_a-sf_sin.o)
 .comment       0x00000000       0x23 c:/devkitpro/devkitarm/bin/../lib/gcc/arm-none-eabi/4.9.2/../../../../arm-none-eabi/lib/armv6k/fpu\libm.a(lib_a-s_modf.o)
 .comment       0x00000000       0x23 c:/devkitpro/devkitarm/bin/../lib/gcc/arm-none-eabi/4.9.2/../../../../arm-none-eabi/lib/armv6k/fpu\libm.a(lib_a-w_pow.o)
 .comment       0x00000000       0x23 c:/devkitpro/devkitarm/bin/../lib/gcc/arm-none-eabi/4.9.2/../../../../arm-none-eabi/lib/armv6k/fpu\libm.a(lib_a-ef_rem_pio2.o)
 .comment       0x00000000       0x23 c:/devkitpro/devkitarm/bin/../lib/gcc/arm-none-eabi/4.9.2/../../../../arm-none-eabi/lib/armv6k/fpu\libm.a(lib_a-e_pow.o)
 .comment       0x00000000       0x23 c:/devkitpro/devkitarm/bin/../lib/gcc/arm-none-eabi/4.9.2/../../../../arm-none-eabi/lib/armv6k/fpu\libm.a(lib_a-e_sqrt.o)
 .comment       0x00000000       0x23 c:/devkitpro/devkitarm/bin/../lib/gcc/arm-none-eabi/4.9.2/../../../../arm-none-eabi/lib/armv6k/fpu\libm.a(lib_a-kf_cos.o)
 .comment       0x00000000       0x23 c:/devkitpro/devkitarm/bin/../lib/gcc/arm-none-eabi/4.9.2/../../../../arm-none-eabi/lib/armv6k/fpu\libm.a(lib_a-kf_rem_pio2.o)
 .comment       0x00000000       0x23 c:/devkitpro/devkitarm/bin/../lib/gcc/arm-none-eabi/4.9.2/../../../../arm-none-eabi/lib/armv6k/fpu\libm.a(lib_a-kf_sin.o)
 .comment       0x00000000       0x23 c:/devkitpro/devkitarm/bin/../lib/gcc/arm-none-eabi/4.9.2/../../../../arm-none-eabi/lib/armv6k/fpu\libm.a(lib_a-s_fabs.o)
 .comment       0x00000000       0x23 c:/devkitpro/devkitarm/bin/../lib/gcc/arm-none-eabi/4.9.2/../../../../arm-none-eabi/lib/armv6k/fpu\libm.a(lib_a-sf_fabs.o)
 .comment       0x00000000       0x23 c:/devkitpro/devkitarm/bin/../lib/gcc/arm-none-eabi/4.9.2/../../../../arm-none-eabi/lib/armv6k/fpu\libm.a(lib_a-sf_floor.o)
 .comment       0x00000000       0x23 c:/devkitpro/devkitarm/bin/../lib/gcc/arm-none-eabi/4.9.2/../../../../arm-none-eabi/lib/armv6k/fpu\libm.a(lib_a-s_finite.o)
 .comment       0x00000000       0x23 c:/devkitpro/devkitarm/bin/../lib/gcc/arm-none-eabi/4.9.2/../../../../arm-none-eabi/lib/armv6k/fpu\libm.a(lib_a-s_fpclassify.o)
 .comment       0x00000000       0x23 c:/devkitpro/devkitarm/bin/../lib/gcc/arm-none-eabi/4.9.2/../../../../arm-none-eabi/lib/armv6k/fpu\libm.a(lib_a-sf_scalbn.o)
 .comment       0x00000000       0x23 c:/devkitpro/devkitarm/bin/../lib/gcc/arm-none-eabi/4.9.2/../../../../arm-none-eabi/lib/armv6k/fpu\libm.a(lib_a-s_lib_ver.o)
 .comment       0x00000000       0x23 c:/devkitpro/devkitarm/bin/../lib/gcc/arm-none-eabi/4.9.2/../../../../arm-none-eabi/lib/armv6k/fpu\libm.a(lib_a-s_matherr.o)
 .comment       0x00000000       0x23 c:/devkitpro/devkitarm/bin/../lib/gcc/arm-none-eabi/4.9.2/../../../../arm-none-eabi/lib/armv6k/fpu\libm.a(lib_a-s_nan.o)
 .comment       0x00000000       0x23 c:/devkitpro/devkitarm/bin/../lib/gcc/arm-none-eabi/4.9.2/../../../../arm-none-eabi/lib/armv6k/fpu\libm.a(lib_a-s_rint.o)
 .comment       0x00000000       0x23 c:/devkitpro/devkitarm/bin/../lib/gcc/arm-none-eabi/4.9.2/../../../../arm-none-eabi/lib/armv6k/fpu\libm.a(lib_a-s_scalbn.o)
 .comment       0x00000000       0x23 c:/devkitpro/devkitarm/bin/../lib/gcc/arm-none-eabi/4.9.2/../../../../arm-none-eabi/lib/armv6k/fpu\libm.a(lib_a-s_copysign.o)
 .comment       0x00000000       0x23 c:/devkitpro/devkitarm/bin/../lib/gcc/arm-none-eabi/4.9.2/../../../../arm-none-eabi/lib/armv6k/fpu\libm.a(lib_a-sf_copysign.o)
 .comment       0x00000000       0x23 c:/devkitpro/devkitarm/bin/../lib/gcc/arm-none-eabi/4.9.2/../../../../arm-none-eabi/lib/armv6k/fpu\libg.a(lib_a-abort.o)
 .comment       0x00000000       0x23 c:/devkitpro/devkitarm/bin/../lib/gcc/arm-none-eabi/4.9.2/../../../../arm-none-eabi/lib/armv6k/fpu\libg.a(lib_a-atof.o)
 .comment       0x00000000       0x23 c:/devkitpro/devkitarm/bin/../lib/gcc/arm-none-eabi/4.9.2/../../../../arm-none-eabi/lib/armv6k/fpu\libg.a(lib_a-bsearch.o)
 .comment       0x00000000       0x23 c:/devkitpro/devkitarm/bin/../lib/gcc/arm-none-eabi/4.9.2/../../../../arm-none-eabi/lib/armv6k/fpu\libg.a(lib_a-errno.o)
 .comment       0x00000000       0x23 c:/devkitpro/devkitarm/bin/../lib/gcc/arm-none-eabi/4.9.2/../../../../arm-none-eabi/lib/armv6k/fpu\libg.a(lib_a-exit.o)
 .comment       0x00000000       0x23 c:/devkitpro/devkitarm/bin/../lib/gcc/arm-none-eabi/4.9.2/../../../../arm-none-eabi/lib/armv6k/fpu\libg.a(lib_a-fclose.o)
 .comment       0x00000000       0x23 c:/devkitpro/devkitarm/bin/../lib/gcc/arm-none-eabi/4.9.2/../../../../arm-none-eabi/lib/armv6k/fpu\libg.a(lib_a-fflush.o)
 .comment       0x00000000       0x23 c:/devkitpro/devkitarm/bin/../lib/gcc/arm-none-eabi/4.9.2/../../../../arm-none-eabi/lib/armv6k/fpu\libg.a(lib_a-findfp.o)
 .comment       0x00000000       0x23 c:/devkitpro/devkitarm/bin/../lib/gcc/arm-none-eabi/4.9.2/../../../../arm-none-eabi/lib/armv6k/fpu\libg.a(lib_a-fini.o)
 .comment       0x00000000       0x23 c:/devkitpro/devkitarm/bin/../lib/gcc/arm-none-eabi/4.9.2/../../../../arm-none-eabi/lib/armv6k/fpu\libg.a(lib_a-fopen.o)
 .comment       0x00000000       0x23 c:/devkitpro/devkitarm/bin/../lib/gcc/arm-none-eabi/4.9.2/../../../../arm-none-eabi/lib/armv6k/fpu\libg.a(lib_a-fprintf.o)
 .comment       0x00000000       0x23 c:/devkitpro/devkitarm/bin/../lib/gcc/arm-none-eabi/4.9.2/../../../../arm-none-eabi/lib/armv6k/fpu\libg.a(lib_a-fputc.o)
 .comment       0x00000000       0x23 c:/devkitpro/devkitarm/bin/../lib/gcc/arm-none-eabi/4.9.2/../../../../arm-none-eabi/lib/armv6k/fpu\libg.a(lib_a-fread.o)
 .comment       0x00000000       0x23 c:/devkitpro/devkitarm/bin/../lib/gcc/arm-none-eabi/4.9.2/../../../../arm-none-eabi/lib/armv6k/fpu\libg.a(lib_a-freer.o)
 .comment       0x00000000       0x23 c:/devkitpro/devkitarm/bin/../lib/gcc/arm-none-eabi/4.9.2/../../../../arm-none-eabi/lib/armv6k/fpu\libg.a(lib_a-fseek.o)
 .comment       0x00000000       0x23 c:/devkitpro/devkitarm/bin/../lib/gcc/arm-none-eabi/4.9.2/../../../../arm-none-eabi/lib/armv6k/fpu\libg.a(lib_a-fseeko.o)
 .comment       0x00000000       0x23 c:/devkitpro/devkitarm/bin/../lib/gcc/arm-none-eabi/4.9.2/../../../../arm-none-eabi/lib/armv6k/fpu\libg.a(lib_a-fwalk.o)
 .comment       0x00000000       0x23 c:/devkitpro/devkitarm/bin/../lib/gcc/arm-none-eabi/4.9.2/../../../../arm-none-eabi/lib/armv6k/fpu\libg.a(lib_a-fwrite.o)
 .comment       0x00000000       0x23 c:/devkitpro/devkitarm/bin/../lib/gcc/arm-none-eabi/4.9.2/../../../../arm-none-eabi/lib/armv6k/fpu\libg.a(lib_a-gmtime.o)
 .comment       0x00000000       0x23 c:/devkitpro/devkitarm/bin/../lib/gcc/arm-none-eabi/4.9.2/../../../../arm-none-eabi/lib/armv6k/fpu\libg.a(lib_a-gmtime_r.o)
 .comment       0x00000000       0x23 c:/devkitpro/devkitarm/bin/../lib/gcc/arm-none-eabi/4.9.2/../../../../arm-none-eabi/lib/armv6k/fpu\libg.a(lib_a-impure.o)
 .comment       0x00000000       0x23 c:/devkitpro/devkitarm/bin/../lib/gcc/arm-none-eabi/4.9.2/../../../../arm-none-eabi/lib/armv6k/fpu\libg.a(lib_a-init.o)
 .comment       0x00000000       0x23 c:/devkitpro/devkitarm/bin/../lib/gcc/arm-none-eabi/4.9.2/../../../../arm-none-eabi/lib/armv6k/fpu\libg.a(lib_a-makebuf.o)
 .comment       0x00000000       0x23 c:/devkitpro/devkitarm/bin/../lib/gcc/arm-none-eabi/4.9.2/../../../../arm-none-eabi/lib/armv6k/fpu\libg.a(lib_a-malloc.o)
 .comment       0x00000000       0x23 c:/devkitpro/devkitarm/bin/../lib/gcc/arm-none-eabi/4.9.2/../../../../arm-none-eabi/lib/armv6k/fpu\libg.a(lib_a-mallocr.o)
 .comment       0x00000000       0x23 c:/devkitpro/devkitarm/bin/../lib/gcc/arm-none-eabi/4.9.2/../../../../arm-none-eabi/lib/armv6k/fpu\libg.a(lib_a-memcmp.o)
 .comment       0x00000000       0x23 c:/devkitpro/devkitarm/bin/../lib/gcc/arm-none-eabi/4.9.2/../../../../arm-none-eabi/lib/armv6k/fpu\libg.a(lib_a-memcpy.o)
 .comment       0x00000000       0x23 c:/devkitpro/devkitarm/bin/../lib/gcc/arm-none-eabi/4.9.2/../../../../arm-none-eabi/lib/armv6k/fpu\libg.a(lib_a-memset.o)
 .comment       0x00000000       0x23 c:/devkitpro/devkitarm/bin/../lib/gcc/arm-none-eabi/4.9.2/../../../../arm-none-eabi/lib/armv6k/fpu\libg.a(lib_a-mlock.o)
 .comment       0x00000000       0x23 c:/devkitpro/devkitarm/bin/../lib/gcc/arm-none-eabi/4.9.2/../../../../arm-none-eabi/lib/armv6k/fpu\libg.a(lib_a-month_lengths.o)
 .comment       0x00000000       0x23 c:/devkitpro/devkitarm/bin/../lib/gcc/arm-none-eabi/4.9.2/../../../../arm-none-eabi/lib/armv6k/fpu\libg.a(lib_a-printf.o)
 .comment       0x00000000       0x23 c:/devkitpro/devkitarm/bin/../lib/gcc/arm-none-eabi/4.9.2/../../../../arm-none-eabi/lib/armv6k/fpu\libg.a(lib_a-putchar.o)
 .comment       0x00000000       0x23 c:/devkitpro/devkitarm/bin/../lib/gcc/arm-none-eabi/4.9.2/../../../../arm-none-eabi/lib/armv6k/fpu\libg.a(lib_a-putc.o)
 .comment       0x00000000       0x23 c:/devkitpro/devkitarm/bin/../lib/gcc/arm-none-eabi/4.9.2/../../../../arm-none-eabi/lib/armv6k/fpu\libg.a(lib_a-rand.o)
 .comment       0x00000000       0x23 c:/devkitpro/devkitarm/bin/../lib/gcc/arm-none-eabi/4.9.2/../../../../arm-none-eabi/lib/armv6k/fpu\libg.a(lib_a-realloc.o)
 .comment       0x00000000       0x23 c:/devkitpro/devkitarm/bin/../lib/gcc/arm-none-eabi/4.9.2/../../../../arm-none-eabi/lib/armv6k/fpu\libg.a(lib_a-reallocr.o)
 .comment       0x00000000       0x23 c:/devkitpro/devkitarm/bin/../lib/gcc/arm-none-eabi/4.9.2/../../../../arm-none-eabi/lib/armv6k/fpu\libg.a(lib_a-refill.o)
 .comment       0x00000000       0x23 c:/devkitpro/devkitarm/bin/../lib/gcc/arm-none-eabi/4.9.2/../../../../arm-none-eabi/lib/armv6k/fpu\libg.a(lib_a-remove.o)
 .comment       0x00000000       0x23 c:/devkitpro/devkitarm/bin/../lib/gcc/arm-none-eabi/4.9.2/../../../../arm-none-eabi/lib/armv6k/fpu\libg.a(lib_a-signal.o)
 .comment       0x00000000       0x23 c:/devkitpro/devkitarm/bin/../lib/gcc/arm-none-eabi/4.9.2/../../../../arm-none-eabi/lib/armv6k/fpu\libg.a(lib_a-stdio.o)
 .comment       0x00000000       0x23 c:/devkitpro/devkitarm/bin/../lib/gcc/arm-none-eabi/4.9.2/../../../../arm-none-eabi/lib/armv6k/fpu\libg.a(lib_a-strcpy.o)
 .comment       0x00000000       0x23 c:/devkitpro/devkitarm/bin/../lib/gcc/arm-none-eabi/4.9.2/../../../../arm-none-eabi/lib/armv6k/fpu\libg.a(lib_a-strerror.o)
 .comment       0x00000000       0x23 c:/devkitpro/devkitarm/bin/../lib/gcc/arm-none-eabi/4.9.2/../../../../arm-none-eabi/lib/armv6k/fpu\libg.a(lib_a-strlen.o)
 .comment       0x00000000       0x23 c:/devkitpro/devkitarm/bin/../lib/gcc/arm-none-eabi/4.9.2/../../../../arm-none-eabi/lib/armv6k/fpu\libg.a(lib_a-strncat.o)
 .comment       0x00000000       0x23 c:/devkitpro/devkitarm/bin/../lib/gcc/arm-none-eabi/4.9.2/../../../../arm-none-eabi/lib/armv6k/fpu\libg.a(lib_a-strncpy.o)
 .comment       0x00000000       0x23 c:/devkitpro/devkitarm/bin/../lib/gcc/arm-none-eabi/4.9.2/../../../../arm-none-eabi/lib/armv6k/fpu\libg.a(lib_a-strtod.o)
 .comment       0x00000000       0x23 c:/devkitpro/devkitarm/bin/../lib/gcc/arm-none-eabi/4.9.2/../../../../arm-none-eabi/lib/armv6k/fpu\libg.a(lib_a-time.o)
 .comment       0x00000000       0x23 c:/devkitpro/devkitarm/bin/../lib/gcc/arm-none-eabi/4.9.2/../../../../arm-none-eabi/lib/armv6k/fpu\libg.a(lib_a-u_strerr.o)
 .comment       0x00000000       0x23 c:/devkitpro/devkitarm/bin/../lib/gcc/arm-none-eabi/4.9.2/../../../../arm-none-eabi/lib/armv6k/fpu\libg.a(lib_a-vfprintf.o)
 .comment       0x00000000       0x23 c:/devkitpro/devkitarm/bin/../lib/gcc/arm-none-eabi/4.9.2/../../../../arm-none-eabi/lib/armv6k/fpu\libg.a(lib_a-wbuf.o)
 .comment       0x00000000       0x23 c:/devkitpro/devkitarm/bin/../lib/gcc/arm-none-eabi/4.9.2/../../../../arm-none-eabi/lib/armv6k/fpu\libg.a(lib_a-wcrtomb.o)
 .comment       0x00000000       0x23 c:/devkitpro/devkitarm/bin/../lib/gcc/arm-none-eabi/4.9.2/../../../../arm-none-eabi/lib/armv6k/fpu\libg.a(lib_a-wcsrtombs.o)
 .comment       0x00000000       0x23 c:/devkitpro/devkitarm/bin/../lib/gcc/arm-none-eabi/4.9.2/../../../../arm-none-eabi/lib/armv6k/fpu\libg.a(lib_a-wctomb_r.o)
 .comment       0x00000000       0x23 c:/devkitpro/devkitarm/bin/../lib/gcc/arm-none-eabi/4.9.2/../../../../arm-none-eabi/lib/armv6k/fpu\libg.a(lib_a-wsetup.o)
 .comment       0x00000000       0x23 c:/devkitpro/devkitarm/bin/../lib/gcc/arm-none-eabi/4.9.2/../../../../arm-none-eabi/lib/armv6k/fpu\libg.a(lib_a-__call_atexit.o)
 .comment       0x00000000       0x23 c:/devkitpro/devkitarm/bin/../lib/gcc/arm-none-eabi/4.9.2/../../../../arm-none-eabi/lib/armv6k/fpu\libg.a(lib_a-dtoa.o)
 .comment       0x00000000       0x23 c:/devkitpro/devkitarm/bin/../lib/gcc/arm-none-eabi/4.9.2/../../../../arm-none-eabi/lib/armv6k/fpu\libg.a(lib_a-flags.o)
 .comment       0x00000000       0x23 c:/devkitpro/devkitarm/bin/../lib/gcc/arm-none-eabi/4.9.2/../../../../arm-none-eabi/lib/armv6k/fpu\libg.a(lib_a-fvwrite.o)
 .comment       0x00000000       0x23 c:/devkitpro/devkitarm/bin/../lib/gcc/arm-none-eabi/4.9.2/../../../../arm-none-eabi/lib/armv6k/fpu\libg.a(lib_a-gdtoa-gethex.o)
 .comment       0x00000000       0x23 c:/devkitpro/devkitarm/bin/../lib/gcc/arm-none-eabi/4.9.2/../../../../arm-none-eabi/lib/armv6k/fpu\libg.a(lib_a-gdtoa-hexnan.o)
 .comment       0x00000000       0x23 c:/devkitpro/devkitarm/bin/../lib/gcc/arm-none-eabi/4.9.2/../../../../arm-none-eabi/lib/armv6k/fpu\libg.a(lib_a-locale.o)
 .comment       0x00000000       0x23 c:/devkitpro/devkitarm/bin/../lib/gcc/arm-none-eabi/4.9.2/../../../../arm-none-eabi/lib/armv6k/fpu\libg.a(lib_a-mbtowc_r.o)
 .comment       0x00000000       0x23 c:/devkitpro/devkitarm/bin/../lib/gcc/arm-none-eabi/4.9.2/../../../../arm-none-eabi/lib/armv6k/fpu\libg.a(lib_a-memchr.o)
 .comment       0x00000000       0x23 c:/devkitpro/devkitarm/bin/../lib/gcc/arm-none-eabi/4.9.2/../../../../arm-none-eabi/lib/armv6k/fpu\libg.a(lib_a-memmove.o)
 .comment       0x00000000       0x23 c:/devkitpro/devkitarm/bin/../lib/gcc/arm-none-eabi/4.9.2/../../../../arm-none-eabi/lib/armv6k/fpu\libg.a(lib_a-mprec.o)
 .comment       0x00000000       0x23 c:/devkitpro/devkitarm/bin/../lib/gcc/arm-none-eabi/4.9.2/../../../../arm-none-eabi/lib/armv6k/fpu\libg.a(lib_a-sf_nan.o)
 .comment       0x00000000       0x23 c:/devkitpro/devkitarm/bin/../lib/gcc/arm-none-eabi/4.9.2/../../../../arm-none-eabi/lib/armv6k/fpu\libg.a(lib_a-strcasecmp.o)
 .comment       0x00000000       0x23 c:/devkitpro/devkitarm/bin/../lib/gcc/arm-none-eabi/4.9.2/../../../../arm-none-eabi/lib/armv6k/fpu\libg.a(lib_a-strcat.o)
 .comment       0x00000000       0x23 c:/devkitpro/devkitarm/bin/../lib/gcc/arm-none-eabi/4.9.2/../../../../arm-none-eabi/lib/armv6k/fpu\libg.a(lib_a-strchr.o)
 .comment       0x00000000       0x23 c:/devkitpro/devkitarm/bin/../lib/gcc/arm-none-eabi/4.9.2/../../../../arm-none-eabi/lib/armv6k/fpu\libg.a(lib_a-strlcpy.o)
 .comment       0x00000000       0x23 c:/devkitpro/devkitarm/bin/../lib/gcc/arm-none-eabi/4.9.2/../../../../arm-none-eabi/lib/armv6k/fpu\libg.a(lib_a-strncasecmp.o)
 .comment       0x00000000       0x23 c:/devkitpro/devkitarm/bin/../lib/gcc/arm-none-eabi/4.9.2/../../../../arm-none-eabi/lib/armv6k/fpu\libg.a(lib_a-strncmp.o)
 .comment       0x00000000       0x23 c:/devkitpro/devkitarm/bin/../lib/gcc/arm-none-eabi/4.9.2/../../../../arm-none-eabi/lib/armv6k/fpu\libg.a(lib_a-strtol.o)
 .comment       0x00000000       0x23 c:/devkitpro/devkitarm/bin/../lib/gcc/arm-none-eabi/4.9.2/../../../../arm-none-eabi/lib/armv6k/fpu\libg.a(lib_a-svfiprintf.o)
 .comment       0x00000000       0x23 c:/devkitpro/devkitarm/bin/../lib/gcc/arm-none-eabi/4.9.2/../../../../arm-none-eabi/lib/armv6k/fpu\libg.a(lib_a-vfiprintf.o)
 .comment       0x00000000       0x23 c:/devkitpro/devkitarm/bin/../lib/gcc/arm-none-eabi/4.9.2/../../../../arm-none-eabi/lib/armv6k/fpu\libg.a(lib_a-wcsnrtombs.o)
 .comment       0x00000000       0x23 c:/devkitpro/devkitarm/bin/../lib/gcc/arm-none-eabi/4.9.2/../../../../arm-none-eabi/lib/armv6k/fpu\libg.a(lib_a-callocr.o)
 .comment       0x00000000       0x23 c:/devkitpro/devkitarm/bin/../lib/gcc/arm-none-eabi/4.9.2/../../../../arm-none-eabi/lib/armv6k/fpu\libg.a(lib_a-ctype_.o)
 .comment       0x00000000       0x23 c:/devkitpro/devkitarm/bin/../lib/gcc/arm-none-eabi/4.9.2/../../../../arm-none-eabi/lib/armv6k/fpu\libg.a(lib_a-fputwc.o)
 .comment       0x00000000       0x23 c:/devkitpro/devkitarm/bin/../lib/gcc/arm-none-eabi/4.9.2/../../../../arm-none-eabi/lib/armv6k/fpu\libg.a(lib_a-getenv_r.o)
 .comment       0x00000000       0x23 c:/devkitpro/devkitarm/bin/../lib/gcc/arm-none-eabi/4.9.2/../../../../arm-none-eabi/lib/armv6k/fpu\libg.a(lib_a-environ.o)
 .comment       0x00000000       0x23 c:/devkitpro/devkitarm/bin/../lib/gcc/arm-none-eabi/4.9.2/../../../../arm-none-eabi/lib/armv6k/fpu\libg.a(lib_a-envlock.o)
 .comment       0x00000000       0x23 c:/devkitpro/devkitarm/bin/../lib/gcc/arm-none-eabi/4.9.2/../../../../arm-none-eabi/lib/armv6k/fpu\libsysbase.a(iosupport.o)
 .comment       0x00000000       0x23 c:/devkitpro/devkitarm/bin/../lib/gcc/arm-none-eabi/4.9.2/../../../../arm-none-eabi/lib/armv6k/fpu\libsysbase.a(close.o)
 .comment       0x00000000       0x23 c:/devkitpro/devkitarm/bin/../lib/gcc/arm-none-eabi/4.9.2/../../../../arm-none-eabi/lib/armv6k/fpu\libsysbase.a(fstat.o)
 .comment       0x00000000       0x23 c:/devkitpro/devkitarm/bin/../lib/gcc/arm-none-eabi/4.9.2/../../../../arm-none-eabi/lib/armv6k/fpu\libsysbase.a(getpid.o)
 .comment       0x00000000       0x23 c:/devkitpro/devkitarm/bin/../lib/gcc/arm-none-eabi/4.9.2/../../../../arm-none-eabi/lib/armv6k/fpu\libsysbase.a(gettod.o)
 .comment       0x00000000       0x23 c:/devkitpro/devkitarm/bin/../lib/gcc/arm-none-eabi/4.9.2/../../../../arm-none-eabi/lib/armv6k/fpu\libsysbase.a(isatty.o)
 .comment       0x00000000       0x23 c:/devkitpro/devkitarm/bin/../lib/gcc/arm-none-eabi/4.9.2/../../../../arm-none-eabi/lib/armv6k/fpu\libsysbase.a(kill.o)
 .comment       0x00000000       0x23 c:/devkitpro/devkitarm/bin/../lib/gcc/arm-none-eabi/4.9.2/../../../../arm-none-eabi/lib/armv6k/fpu\libsysbase.a(lseek.o)
 .comment       0x00000000       0x23 c:/devkitpro/devkitarm/bin/../lib/gcc/arm-none-eabi/4.9.2/../../../../arm-none-eabi/lib/armv6k/fpu\libsysbase.a(open.o)
 .comment       0x00000000       0x23 c:/devkitpro/devkitarm/bin/../lib/gcc/arm-none-eabi/4.9.2/../../../../arm-none-eabi/lib/armv6k/fpu\libsysbase.a(read.o)
 .comment       0x00000000       0x23 c:/devkitpro/devkitarm/bin/../lib/gcc/arm-none-eabi/4.9.2/../../../../arm-none-eabi/lib/armv6k/fpu\libsysbase.a(sbrk.o)
 .comment       0x00000000       0x23 c:/devkitpro/devkitarm/bin/../lib/gcc/arm-none-eabi/4.9.2/../../../../arm-none-eabi/lib/armv6k/fpu\libsysbase.a(unlink.o)
 .comment       0x00000000       0x23 c:/devkitpro/devkitarm/bin/../lib/gcc/arm-none-eabi/4.9.2/../../../../arm-none-eabi/lib/armv6k/fpu\libsysbase.a(write.o)
 .comment       0x00000000       0x23 c:/devkitpro/devkitarm/bin/../lib/gcc/arm-none-eabi/4.9.2/../../../../arm-none-eabi/lib/armv6k/fpu\libsysbase.a(_exit.o)
 .comment       0x00000000       0x23 c:/devkitpro/devkitarm/bin/../lib/gcc/arm-none-eabi/4.9.2/../../../../arm-none-eabi/lib/armv6k/fpu\libsysbase.a(malloc_vars.o)
 .comment       0x00000000       0x23 c:/devkitpro/devkitarm/bin/../lib/gcc/arm-none-eabi/4.9.2/../../../../arm-none-eabi/lib/armv6k/fpu\libsysbase.a(chdir.o)
 .comment       0x00000000       0x23 c:/devkitpro/devkitarm/bin/../lib/gcc/arm-none-eabi/4.9.2/../../../../arm-none-eabi/lib/armv6k/fpu\libsysbase.a(flock.o)
 .comment       0x00000000       0x23 c:/devkitpro/devkitarm/bin/../lib/gcc/arm-none-eabi/4.9.2/../../../../arm-none-eabi/lib/armv6k/fpu\libsysbase.a(syscall_support.o)
 .comment       0x00000000       0x23 c:/devkitpro/devkitarm/bin/../lib/gcc/arm-none-eabi/4.9.2/../../../../arm-none-eabi/lib/armv6k/fpu\libsysbase.a(handle_manager.o)
 .comment       0x00000000       0x23 c:/devkitpro/devkitarm/bin/../lib/gcc/arm-none-eabi/4.9.2/../../../../arm-none-eabi/lib/armv6k/fpu\libsysbase.a(getreent.o)
 .comment       0x00000000       0x23 c:/devkitpro/devkitarm/bin/../lib/gcc/arm-none-eabi/4.9.2/armv6k/fpu\libgcc.a(bpabi.o)
 .comment       0x00000000       0x23 c:/devkitpro/devkitarm/bin/../lib/gcc/arm-none-eabi/4.9.2/armv6k/fpu\libgcc.a(_divdi3.o)
 .comment       0x00000000       0x23 c:/devkitpro/devkitarm/bin/../lib/gcc/arm-none-eabi/4.9.2/armv6k/fpu\libgcc.a(_udivdi3.o)
 .comment       0x00000000       0x23 c:/devkitpro/devkitarm/bin/../lib/gcc/arm-none-eabi/4.9.2/../../../../arm-none-eabi/lib/armv6k/fpu\libg.a(lib_a-strnlen.o)
 .comment       0x00000000       0x23 c:/devkitpro/devkitarm/bin/../lib/gcc/arm-none-eabi/4.9.2/../../../../arm-none-eabi/lib/armv6k/fpu\libg.a(lib_a-strrchr.o)
 .comment       0x00000000       0x23 c:/devkitpro/devkitarm/bin/../lib/gcc/arm-none-eabi/4.9.2/armv6k/fpu/crtend.o

Memory Configuration

Name             Origin             Length             Attributes
*default*        0x00000000         0xffffffff

Linker script and memory map

                0x00100000                . = 0x100000
                0x00100000                __start__ = .

.text           0x00100000    0x5c164
 *(.crt0)
 .crt0          0x00100000       0x94 c:/devkitpro/devkitarm/bin/../lib/gcc/arm-none-eabi/4.9.2/../../../../arm-none-eabi/lib/armv6k/fpu/3dsx_crt0.o
                0x00100000                _start
                0x00100008                __service_ptr
                0x0010000c                __apt_appid
                0x00100010                __heap_size
                0x00100014                __linear_heap_size
                0x00100018                __system_arglist
                0x0010001c                __system_runflags
 *(.init)
 .init          0x00100094        0xc c:/devkitpro/devkitarm/bin/../lib/gcc/arm-none-eabi/4.9.2/armv6k/fpu/crti.o
                0x00100094                _init
 .init          0x001000a0        0xc c:/devkitpro/devkitarm/bin/../lib/gcc/arm-none-eabi/4.9.2/armv6k/fpu/crtn.o
                0x001000ac                . = ALIGN (0x4)
 *(.text)
 .text          0x001000ac        0x0 c:/devkitpro/devkitarm/bin/../lib/gcc/arm-none-eabi/4.9.2/../../../../arm-none-eabi/lib/armv6k/fpu/3dsx_crt0.o
 .text          0x001000ac        0x0 c:/devkitpro/devkitarm/bin/../lib/gcc/arm-none-eabi/4.9.2/armv6k/fpu/crti.o
 .text          0x001000ac      0x108 c:/devkitpro/devkitarm/bin/../lib/gcc/arm-none-eabi/4.9.2/armv6k/fpu/crtbegin.o
 .text          0x001001b4        0x0 0.bin.o
 .text          0x001001b4        0x0 1.bin.o
 .text          0x001001b4        0x0 2.bin.o
 .text          0x001001b4        0x0 3.bin.o
 .text          0x001001b4        0x0 4.bin.o
 .text          0x001001b4        0x0 5.bin.o
 .text          0x001001b4        0x0 6.bin.o
 .text          0x001001b4        0x0 7.bin.o
 .text          0x001001b4        0x0 8.bin.o
 .text          0x001001b4        0x0 9.bin.o
 .text          0x001001b4        0x0 bg.bin.o
 .text          0x001001b4        0x0 immut_numbers.bin.o
 .text          0x001001b4        0x0 mut_numbers.bin.o
 .text          0x001001b4        0x0 selector.bin.o
 .text          0x001001b4       0xb0 gfx.o
                0x001001b4                SudokuGFX_init
                0x00100220                sudoku_gfx_free
                0x00100224                draw
 .text          0x00100264      0x1b8 main.o
                0x00100264                check_input
                0x001003a4                update_state
                0x001003a8                initialize_game
 .text          0x0010041c      0x164 mylib.o
                0x0010041c                emalloc
                0x00100450                erealloc
                0x00100484                rand_lim
                0x001004b4                mod
                0x001004d0                itoa
 .text          0x00100580      0x7f0 sudoku.o
                0x00100580                sudoku_new
                0x001005cc                sudoku_free
                0x001005e8                sudoku_print
                0x00100660                sudoku_default
                0x00100754                sudoku_delete_space
                0x001007d0                sudoku_flip_vert
                0x0010084c                sudoku_flip_hori
                0x001008c4                sudoku_flip_dia1
                0x00100940                sudoku_flip_dia2
                0x001009a8                sudoku_transform
                0x00100a3c                check_horizontals
                0x00100b0c                check_verticals
                0x00100be0                check_boxes
                0x00100d30                check_all
 .text          0x00100d70      0x3e8 c:/devkitPro/libctru/lib\libsfil.a(sfil_png.o)
                0x00101070                sfil_load_PNG_file
                0x0010110c                sfil_load_PNG_buffer
 .text          0x00101158     0x6ce0 c:/devkitPro/portlibs/armv6k/lib\libpng.a(png.o)
                0x00101158                png_zalloc
                0x001011b0                png_zfree
                0x00101ab0                png_set_sig_bytes
                0x00101ae4                png_sig_cmp
                0x00101b54                png_reset_crc
                0x00101b74                png_calculate_crc
                0x00101bc8                png_user_version_check
                0x00101cc8                png_create_png_struct
                0x00101ddc                png_create_info_struct
                0x00101e1c                png_destroy_info_struct
                0x001021a4                png_info_init_3
                0x00102200                png_data_freer
                0x0010224c                png_free_data
                0x0010225c                png_get_io_ptr
                0x00102268                png_init_io
                0x00102274                png_save_int_32
                0x00102294                png_convert_to_rfc1123_buffer
                0x00102478                png_convert_to_rfc1123
                0x0010266c                png_get_copyright
                0x00102678                png_get_libpng_ver
                0x00102684                png_get_header_ver
                0x00102690                png_get_header_version
                0x0010269c                png_build_grayscale_palette
                0x001026fc                png_handle_as_unknown
                0x00102770                png_chunk_unknown_handling
                0x00102800                png_reset_zstream
                0x00102818                png_access_version_number
                0x00102824                png_zstream_error
                0x00102908                png_colorspace_set_gamma
                0x00102a78                png_colorspace_sync_info
                0x00102ae8                png_colorspace_sync
                0x00102b70                png_colorspace_set_sRGB
                0x00102df4                png_icc_check_length
                0x00102f8c                png_icc_check_header
                0x001032e8                png_icc_check_tag_table
                0x00103420                png_icc_set_sRGB
                0x00103674                png_colorspace_set_ICC
                0x00103a4c                png_colorspace_set_rgb_coefficients
                0x00103cf4                png_check_IHDR
                0x00103fac                png_check_fp_number
                0x00104244                png_check_fp_string
                0x00104504                png_ascii_from_fp
                0x00104e30                png_ascii_from_fixed
                0x00105260                png_fixed
                0x001052e8                png_muldiv
                0x001053a0                png_muldiv_warn
                0x0010545c                png_reciprocal
                0x001054e8                png_colorspace_set_endpoints
                0x001064e8                png_colorspace_set_chromaticities
                0x00106fbc                png_gamma_significant
                0x00106fdc                png_reciprocal2
                0x00107098                png_gamma_8bit_correct
                0x00107120                png_gamma_16bit_correct
                0x001071b4                png_gamma_correct
                0x001072c4                png_destroy_gamma_table
                0x001073f8                png_build_gamma_table
                0x00107d34                png_set_option
                0x00107d94                png_image_free
                0x00107dd0                png_image_error
 .text          0x00107e38     0x1a6c c:/devkitPro/portlibs/armv6k/lib\libpng.a(pngerror.o)
                0x001080a4                png_safecat
                0x00108118                png_format_number
                0x00108284                png_warning
                0x001083cc                png_warning_parameter
                0x00108448                png_warning_parameter_unsigned
                0x001084dc                png_warning_parameter_signed
                0x001085a8                png_formatted_warning
                0x00108880                png_chunk_warning
                0x00108a2c                png_free_jmpbuf
                0x00108abc                png_longjmp
                0x00108ae8                png_error
                0x00108b48                png_app_warning
                0x00108ca0                png_app_error
                0x00108df8                png_chunk_error
                0x00108e24                png_chunk_benign_error
                0x00108fc8                png_benign_error
                0x00109298                png_fixed_error
                0x00109318                png_set_longjmp_fn
                0x001093fc                png_chunk_report
                0x001096d4                png_set_error_fn
                0x001096e8                png_get_error_ptr
                0x001096f4                png_safe_error
                0x00109798                png_safe_warning
                0x0010980c                png_safe_execute
 *fill*         0x001098a4        0x4 
 .text          0x001098a8     0x12d0 c:/devkitPro/portlibs/armv6k/lib\libpng.a(pngget.o)
                0x001098a8                png_get_valid
                0x001098c4                png_get_rowbytes
                0x001098dc                png_get_rows
                0x001098f4                png_get_image_width
                0x0010990c                png_get_image_height
                0x00109924                png_get_bit_depth
                0x0010993c                png_get_color_type
                0x00109954                png_get_filter_type
                0x0010996c                png_get_interlace_type
                0x00109984                png_get_compression_type
                0x0010999c                png_get_x_pixels_per_meter
                0x001099d0                png_get_y_pixels_per_meter
                0x00109a04                png_get_pixels_per_meter
                0x00109a50                png_get_pixel_aspect_ratio
                0x00109a98                png_get_pixel_aspect_ratio_fixed
                0x00109b28                png_get_x_offset_microns
                0x00109b5c                png_get_y_offset_microns
                0x00109b90                png_get_x_offset_pixels
                0x00109bc4                png_get_y_offset_pixels
                0x00109bf8                png_get_pixels_per_inch
                0x00109c84                png_get_x_pixels_per_inch
                0x00109d00                png_get_y_pixels_per_inch
                0x00109d7c                png_get_x_offset_inches_fixed
                0x00109dcc                png_get_y_offset_inches_fixed
                0x00109e1c                png_get_x_offset_inches
                0x00109e6c                png_get_y_offset_inches
                0x00109ebc                png_get_pHYs_dpi
                0x00109f88                png_get_channels
                0x00109fa0                png_get_signature
                0x00109fb8                png_get_bKGD
                0x00109ff4                png_get_cHRM
                0x0010a108                png_get_cHRM_XYZ
                0x0010a238                png_get_cHRM_XYZ_fixed
                0x0010a310                png_get_cHRM_fixed
                0x0010a3d4                png_get_gAMA_fixed
                0x0010a40c                png_get_gAMA
                0x0010a460                png_get_sRGB
                0x0010a49c                png_get_iCCP
                0x0010a540                png_get_sPLT
                0x0010a570                png_get_hIST
                0x0010a5ac                png_get_IHDR
                0x0010a668                png_get_oFFs
                0x0010a6d4                png_get_pCAL
                0x0010a7a4                png_get_sCAL_fixed
                0x0010a82c                png_get_sCAL
                0x0010a884                png_get_sCAL_s
                0x0010a8c8                png_get_pHYs
                0x0010a928                png_get_PLTE
                0x0010a96c                png_get_sBIT
                0x0010a9a8                png_get_text
                0x0010a9f0                png_get_tIME
                0x0010aa2c                png_get_tRNS
                0x0010aabc                png_get_unknown_chunks
                0x0010aaec                png_get_rgb_to_gray_status
                0x0010aaf8                png_get_user_chunk_ptr
                0x0010ab04                png_get_compression_buffer_size
                0x0010ab20                png_get_user_width_max
                0x0010ab2c                png_get_user_height_max
                0x0010ab38                png_get_chunk_cache_max
                0x0010ab44                png_get_chunk_malloc_max
                0x0010ab50                png_get_io_state
                0x0010ab58                png_get_io_chunk_type
                0x0010ab60                png_get_palette_max
 .text          0x0010ab78      0x3ec c:/devkitPro/portlibs/armv6k/lib\libpng.a(pngmem.o)
                0x0010ab78                png_destroy_png_struct
                0x0010abe0                png_calloc
                0x0010ac58                png_malloc_base
                0x0010ac88                png_malloc_array
                0x0010ad04                png_realloc_array
                0x0010ae0c                png_malloc
                0x0010ae68                png_malloc_default
                0x0010aea8                png_malloc_warn
                0x0010af0c                png_free
                0x0010af30                png_free_default
                0x0010af44                png_set_mem_fn
                0x0010af58                png_get_mem_ptr
 .text          0x0010af64     0x7704 c:/devkitPro/portlibs/armv6k/lib\libpng.a(pngread.o)
                0x00110bbc                png_create_read_struct
                0x00110c14                png_create_read_struct_2
                0x00110c70                png_read_info
                0x00110c80                png_read_update_info
                0x00110cc4                png_start_read_image
                0x00110ce8                png_read_row
                0x00111040                png_read_rows
                0x00111434                png_read_image
                0x001117d0                png_read_end
                0x00111c60                png_destroy_read_struct
                0x00111ee4                png_set_read_status_fn
                0x00111ef0                png_read_png
                0x001121a8                png_image_begin_read_from_stdio
                0x00112358                png_image_begin_read_from_file
                0x00112420                png_image_begin_read_from_memory
                0x001124bc                png_image_finish_read
 .text          0x00112668       0xac c:/devkitPro/portlibs/armv6k/lib\libpng.a(pngrio.o)
                0x00112668                png_default_read_data
                0x001126a4                png_read_data
                0x001126c4                png_set_read_fn
 *fill*         0x00112714        0x4 
 .text          0x00112718     0x6020 c:/devkitPro/portlibs/armv6k/lib\libpng.a(pngrtran.o)
                0x00113a64                png_set_crc_action
                0x00113b40                png_set_background_fixed
                0x00113bf8                png_set_background
                0x00113cd0                png_set_scale_16
                0x00113d08                png_set_strip_16
                0x00113d40                png_set_strip_alpha
                0x00113d78                png_set_alpha_mode_fixed
                0x00113f74                png_set_alpha_mode
                0x00114224                png_set_quantize
                0x00114acc                png_set_gamma_fixed
                0x00114bd4                png_set_gamma
                0x00114e08                png_set_expand
                0x00114e44                png_set_palette_to_rgb
                0x00114e80                png_set_expand_gray_1_2_4_to_8
                0x00114eb8                png_set_tRNS_to_alpha
                0x00114ef4                png_set_expand_16
                0x00114f30                png_set_gray_to_rgb
                0x00114f68                png_set_rgb_to_gray_fixed
                0x001150c0                png_set_rgb_to_gray
                0x00115264                png_set_read_user_transform_fn
                0x00115278                png_init_read_transformations
                0x00115f60                png_read_transform_info
                0x00116250                png_do_read_transformations
 .text          0x00118738     0x524c c:/devkitPro/portlibs/armv6k/lib\libpng.a(pngrutil.o)
                0x00119370                png_get_uint_31
                0x001193ac                png_get_uint_32
                0x001193d0                png_get_int_32
                0x001193f4                png_get_uint_16
                0x00119408                png_read_sig
                0x001194b4                png_read_chunk_header
                0x00119624                png_crc_read
                0x00119654                png_crc_finish
                0x001197d4                png_crc_error
                0x00119874                png_handle_IHDR
                0x001199ec                png_handle_PLTE
                0x00119c0c                png_handle_IEND
                0x00119c60                png_handle_gAMA
                0x00119d44                png_handle_sBIT
                0x00119f58                png_handle_cHRM
                0x0011a218                png_handle_sRGB
                0x0011a320                png_handle_iCCP
                0x0011a904                png_handle_sPLT
                0x0011ac24                png_handle_tRNS
                0x0011ae60                png_handle_bKGD
                0x0011b090                png_handle_hIST
                0x0011b1c8                png_handle_pHYs
                0x0011b304                png_handle_oFFs
                0x0011b454                png_handle_pCAL
                0x0011b7c4                png_handle_sCAL
                0x0011ba4c                png_handle_tIME
                0x0011bb60                png_handle_tEXt
                0x0011bd20                png_handle_zTXt
                0x0011bf74                png_handle_iTXt
                0x0011c2dc                png_handle_unknown
                0x0011c634                png_check_chunk_name
                0x0011c6fc                png_combine_row
                0x0011cbec                png_do_read_interlace
                0x0011d078                png_read_filter_row
                0x0011d100                png_read_IDAT_data
                0x0011d47c                png_read_finish_IDAT
                0x0011d4f4                png_read_finish_row
                0x0011d644                png_read_start_row
 .text          0x0011d984     0x1e70 c:/devkitPro/portlibs/armv6k/lib\libpng.a(pngset.o)
                0x0011dce4                png_set_bKGD
                0x0011dd30                png_set_cHRM_fixed
                0x0011ddc0                png_set_cHRM_XYZ_fixed
                0x0011de58                png_set_cHRM
                0x0011dfac                png_set_cHRM_XYZ
                0x0011e108                png_set_gAMA_fixed
                0x0011e138                png_set_gAMA
                0x0011e17c                png_set_hIST
                0x0011e228                png_set_IHDR
                0x0011e304                png_set_oFFs
                0x0011e330                png_set_pCAL
                0x0011e5b0                png_set_sCAL_s
                0x0011e714                png_set_sCAL
                0x0011e8e0                png_set_sCAL_fixed
                0x0011ea90                png_set_pHYs
                0x0011eabc                png_set_PLTE
                0x0011ebc0                png_set_sBIT
                0x0011ec04                png_set_sRGB
                0x0011ec34                png_set_sRGB_gAMA_and_cHRM
                0x0011ec74                png_set_iCCP
                0x0011edc8                png_set_text
                0x0011ee0c                png_set_text_2
                0x0011ee44                png_set_tIME
                0x0011eee4                png_set_tRNS
                0x0011f024                png_set_sPLT
                0x0011f194                png_set_unknown_chunks
                0x0011f324                png_set_unknown_chunk_location
                0x0011f3d0                png_permit_mng_features
                0x0011f3e4                png_set_keep_unknown_chunks
                0x0011f698                png_set_read_user_chunk_fn
                0x0011f6a8                png_set_rows
                0x0011f704                png_set_compression_buffer_size
                0x0011f788                png_set_invalid
                0x0011f7a0                png_set_user_limits
                0x0011f7b0                png_set_chunk_cache_max
                0x0011f7bc                png_set_chunk_malloc_max
                0x0011f7c8                png_set_benign_errors
                0x0011f7e0                png_set_check_for_invalid_index
 .text          0x0011f7f4      0xa8c c:/devkitPro/portlibs/armv6k/lib\libpng.a(pngtrans.o)
                0x0011f7f4                png_set_bgr
                0x0011f808                png_set_swap
                0x0011f828                png_set_packing
                0x0011f850                png_set_packswap
                0x0011f870                png_set_shift
                0x0011f898                png_set_interlace_handling
                0x0011f8c8                png_set_filler
                0x0011f950                png_set_add_alpha
                0x0011f9f8                png_set_swap_alpha
                0x0011fa0c                png_set_invert_alpha
                0x0011fa20                png_set_invert_mono
                0x0011fa34                png_do_invert
                0x0011fc24                png_do_swap
                0x0011fc70                png_do_packswap
                0x0011fcdc                png_do_strip_channel
                0x0011ff08                png_do_bgr
                0x00120044                png_do_check_palette_indexes
                0x00120210                png_set_user_transform_info
                0x00120254                png_get_user_transform_ptr
                0x00120260                png_get_current_row_number
                0x00120270                png_get_current_pass_number
 .text          0x00120280     0x37ac c:/devkitPro/portlibs/armv6k/lib\libpng.a(pngwrite.o)
                0x00120894                png_write_info_before_PLTE
                0x00120ed4                png_write_info
                0x00120ee4                png_write_end
                0x00121130                png_convert_from_struct_tm
                0x00121170                png_convert_from_time_t
                0x001211d0                png_create_write_struct
                0x0012125c                png_create_write_struct_2
                0x001212ec                png_write_rows
                0x001216bc                png_write_image
                0x00121a9c                png_write_row
                0x00122544                png_set_flush
                0x00122554                png_write_flush
                0x00122598                png_destroy_write_struct
                0x00122648                png_set_filter
                0x00122fe4                png_set_filter_heuristics
                0x00122fe8                png_set_filter_heuristics_fixed
                0x00122fec                png_set_compression_level
                0x00122ff8                png_set_compression_mem_level
                0x00123004                png_set_compression_strategy
                0x0012301c                png_set_compression_window_bits
                0x00123070                png_set_compression_method
                0x001230a0                png_set_text_compression_level
                0x001230ac                png_set_text_compression_mem_level
                0x001230b8                png_set_text_compression_strategy
                0x001230c4                png_set_text_compression_window_bits
                0x00123118                png_set_text_compression_method
                0x00123148                png_set_write_status_fn
                0x00123154                png_set_write_user_transform_fn
                0x0012316c                png_write_png
                0x0012369c                png_image_write_to_stdio
                0x001238ec                png_image_write_to_file
 .text          0x00123a2c      0x778 c:/devkitPro/portlibs/armv6k/lib\libpng.a(pngwtran.o)
                0x00123a2c                png_do_write_transformations
 .text          0x001241a4     0x4094 c:/devkitPro/portlibs/armv6k/lib\libpng.a(pngwutil.o)
                0x00124b58                png_save_uint_32
                0x00124b78                png_save_uint_16
                0x00124b88                png_write_sig
                0x00124be4                png_write_chunk_start
                0x00124c90                png_write_chunk_data
                0x00124ccc                png_write_chunk_end
                0x00124d18                png_write_chunk
                0x00124e44                png_free_buffer_list
                0x00124e7c                png_write_IHDR
                0x00125214                png_write_PLTE
                0x001253ac                png_compress_IDAT
                0x001257e8                png_write_IEND
                0x001258b0                png_write_gAMA_fixed
                0x001259b0                png_write_sRGB
                0x00125ab8                png_write_iCCP
                0x00125d20                png_write_sPLT
                0x00125f70                png_write_sBIT
                0x00126078                png_write_cHRM_fixed
                0x001261cc                png_write_tRNS
                0x001263a4                png_write_bKGD
                0x001265a4                png_write_hIST
                0x001266e0                png_write_tEXt
                0x00126890                png_write_zTXt
                0x00126ad8                png_write_iTXt
                0x00126ea0                png_write_oFFs
                0x00126fc8                png_write_pCAL
                0x001272d8                png_write_sCAL_s
                0x0012737c                png_write_pHYs
                0x001274c8                png_write_tIME
                0x00127564                png_write_start_row
                0x001276b8                png_write_finish_row
                0x001277f8                png_do_write_interlace
                0x00127a68                png_write_find_filter
 .text          0x00128238       0xd8 c:/devkitPro/portlibs/armv6k/lib\libpng.a(pngwio.o)
                0x00128238                png_default_write_data
                0x00128274                png_default_flush
                0x00128284                png_write_data
                0x001282a4                png_flush
                0x001282b4                png_set_write_fn
 .text          0x00128310      0x5c0 c:/devkitPro/portlibs/armv6k/lib\libz.a(adler32.o)
                0x00128310                adler32
                0x00128758                adler32_combine
                0x00128814                adler32_combine64
 .text          0x001288d0      0x5d8 c:/devkitPro/portlibs/armv6k/lib\libz.a(crc32.o)
                0x00128ae4                get_crc_table
                0x00128af0                crc32
                0x00128ea0                crc32_combine
                0x00128ea4                crc32_combine64
 .text          0x00128ea8     0x40e0 c:/devkitPro/portlibs/armv6k/lib\libz.a(deflate.o)
                0x0012a524                deflateSetDictionary
                0x0012a73c                deflateResetKeep
                0x0012a814                deflateReset
                0x0012a97c                deflateSetHeader
                0x0012a9b0                deflatePending
                0x0012a9fc                deflatePrime
                0x0012aaa4                deflateTune
                0x0012aadc                deflateBound
                0x0012abf0                deflate
                0x0012c440                deflateParams
                0x0012c55c                deflateEnd
                0x0012c67c                deflateInit2_
                0x0012ca44                deflateInit_
                0x0012cd84                deflateCopy
 .text          0x0012cf88     0x2c58 c:/devkitPro/portlibs/armv6k/lib\libz.a(inflate.o)
                0x0012cf88                inflateResetKeep
                0x0012d018                inflateReset
                0x0012d0b4                inflateReset2
                0x0012d1d4                inflateInit2_
                0x0012d35c                inflateInit_
                0x0012d4c0                inflatePrime
                0x0012d538                inflate
                0x0012f3d4                inflateEnd
                0x0012f438                inflateGetDictionary
                0x0012f4d0                inflateSetDictionary
                0x0012f678                inflateGetHeader
                0x0012f6b4                inflateSync
                0x0012f96c                inflateSyncPoint
                0x0012f9ac                inflateCopy
                0x0012fb58                inflateUndermine
                0x0012fb88                inflateMark
 .text          0x0012fbe0      0xbf4 c:/devkitPro/portlibs/armv6k/lib\libz.a(inftrees.o)
                0x0012fbe0                inflate_table
 .text          0x001307d4     0x257c c:/devkitPro/portlibs/armv6k/lib\libz.a(trees.o)
                0x00131d04                _tr_init
                0x00131dd0                _tr_stored_block
                0x00131f64                _tr_flush_bits
                0x00132000                _tr_align
                0x00132184                _tr_flush_block
                0x00132c98                _tr_tally
 .text          0x00132d50       0x38 c:/devkitPro/portlibs/armv6k/lib\libz.a(zutil.o)
                0x00132d50                zlibVersion
                0x00132d5c                zlibCompileFlags
                0x00132d64                zError
                0x00132d78                zcalloc
                0x00132d80                zcfree
 .text          0x00132d88      0xbe4 c:/devkitPro/portlibs/armv6k/lib\libz.a(inffast.o)
                0x00132d88                inflate_fast
 .text          0x0013396c      0x75c c:/devkitPro/libctru/lib\libsf2d.a(sf2d.o)
                0x00133b84                sf2d_init
                0x00133bac                sf2d_init_advanced
                0x00133bcc                sf2d_fini
                0x00133c30                sf2d_set_3D
                0x00133c3c                sf2d_start_frame
                0x00133dcc                sf2d_end_frame
                0x00133ee4                sf2d_swapbuffers
                0x00133f94                sf2d_set_vblank_wait
                0x00133fa4                sf2d_get_fps
                0x00133fb4                sf2d_pool_malloc
                0x00133fe0                sf2d_pool_memalign
                0x00134020                sf2d_pool_space_free
                0x00134038                sf2d_pool_reset
                0x0013404c                sf2d_set_clear_color
                0x0013405c                sf2d_set_scissor_test
                0x001340a8                sf2d_get_current_screen
                0x001340b8                sf2d_get_current_side
 .text          0x001340c8      0x7cc c:/devkitPro/libctru/lib\libsf2d.a(sf2d_draw.o)
                0x001340c8                sf2d_draw_line
                0x001342a0                sf2d_draw_rectangle
                0x00134458                sf2d_draw_rectangle_rotate
                0x001346ac                sf2d_draw_fill_circle
 .text          0x00134894      0x4f8 c:/devkitPro/libctru/lib\libsf2d.a(sf2d_private.o)
                0x00134894                GPU_SetDummyTexEnv
                0x001348c8                vector_mult_matrix4x4
                0x0013494c                matrix_gpu_set_uniform
                0x0013499c                matrix_copy
                0x001349d8                matrix_identity4x4
                0x00134a24                matrix_mult4x4
                0x00134a98                matrix_set_z_rotation
                0x00134b0c                matrix_rotate_z
                0x00134b6c                matrix_set_scaling
                0x00134bb8                matrix_swap_xy
                0x00134c58                matrix_init_orthographic
                0x00134d6c                next_pow2
 .text          0x00134d8c     0x2114 c:/devkitPro/libctru/lib\libsf2d.a(sf2d_texture.o)
                0x00134eb0                sf2d_create_texture
                0x0013509c                sf2d_free_texture
                0x001350ec                sf2d_fill_texture_from_RGBA8
                0x001351a4                sf2d_create_texture_mem_RGBA8
                0x001351e8                sf2d_bind_texture
                0x00135260                sf2d_bind_texture_color
                0x001352e0                sf2d_bind_texture_parameters
                0x00135358                sf2d_draw_texture
                0x00135498                sf2d_draw_texture_blend
                0x001355dc                sf2d_draw_texture_rotate_hotspot
                0x0013578c                sf2d_draw_texture_rotate_hotspot_blend
                0x00135940                sf2d_draw_texture_rotate
                0x00135b04                sf2d_draw_texture_rotate_blend
                0x00135ccc                sf2d_draw_texture_part
                0x00135e48                sf2d_draw_texture_part_blend
                0x00135fc8                sf2d_draw_texture_scale
                0x00136130                sf2d_draw_texture_scale_blend
                0x0013629c                sf2d_draw_texture_part_scale
                0x001363f0                sf2d_draw_texture_part_scale_blend
                0x00136548                sf2d_draw_texture_part_rotate_scale
                0x00136760                sf2d_draw_texture_part_rotate_scale_blend
                0x0013697c                sf2d_draw_texture_depth
                0x00136adc                sf2d_draw_texture_depth_blend
                0x00136c40                sf2d_draw_quad_uv
                0x00136d6c                sf2d_set_pixel
                0x00136e00                sf2d_get_pixel
                0x00136e90                sf2d_texture_tile32
 .text          0x00136ea0        0x0 c:/devkitPro/libctru/lib\libsf2d.a(shader.vsh.o)
 .text          0x00136ea0      0x1d4 c:/devkitPro/libctru/lib\libctru.a(linear.o)
                0x00136ec8                linearMemAlign
                0x00137008                linearAlloc
                0x00137010                linearRealloc
                0x00137018                linearFree
                0x00137068                linearSpaceFree
 .text          0x00137074      0x35c c:/devkitPro/libctru/lib\libctru.a(mem_pool.o)
                0x00137074                MemPool::CoalesceRight(MemBlock*)
                0x00137114                MemPool::Allocate(MemChunk&, unsigned long, int)
                0x0013729c                MemPool::Deallocate(MemChunk const&)
                0x001373a0                MemPool::GetFreeSpace()
 .text          0x001373d0      0x1c4 c:/devkitPro/libctru/lib\libctru.a(vram.o)
                0x001373f8                vramMemAlign
                0x00137528                vramAlloc
                0x00137530                vramRealloc
                0x00137538                vramFree
                0x00137588                vramSpaceFree
 .text          0x00137594      0x72c c:/devkitPro/libctru/lib\libctru.a(gfx.o)
                0x00137620                gfxSet3D
                0x00137630                gfxSetScreenFormat
                0x00137648                gfxGetScreenFormat
                0x00137660                gfxSetDoubleBuffering
                0x00137674                gfxSetFramebufferInfo
                0x001376e4                gfxWriteFramebufferInfo
                0x001377a8                gfxInit
                0x00137988                gfxInitDefault
                0x00137998                gfxExit
                0x00137a64                gfxGetFramebuffer
                0x00137b14                gfxFlushBuffers
                0x00137bf0                gfxSwapBuffers
                0x00137c64                gfxSwapBuffersGpu
 .text          0x00137cc0      0x288 c:/devkitPro/libctru/lib\libctru.a(os.o)
                0x00137d18                osConvertVirtToPhys
                0x00137d64                osConvertOldLINEARMemToNew
                0x00137d84                __libctru_gtod
                0x00137e7c                osGetTime
                0x00137ef0                osGetFirmVersion
                0x00137f04                osGetKernelVersion
                0x00137f18                osStrError
                0x00137f38                osGetWifiStrength
 .text          0x00137f48     0x1a58 c:/devkitPro/libctru/lib\libctru.a(gpu.o)
                0x00137fc8                GPU_Init
                0x00137ff4                GPUCMD_SetBuffer
                0x00138020                GPUCMD_SetBufferOffset
                0x00138030                GPUCMD_GetBuffer
                0x00138070                GPUCMD_AddRawCommands
                0x001380bc                GPUCMD_Run
                0x0013811c                GPUCMD_FlushAndRun
                0x00138190                GPUCMD_Add
                0x00138274                GPUCMD_Finalize
                0x0013830c                GPU_Reset
                0x00138aec                GPU_SetFloatUniform
                0x00138b64                GPU_SetViewport
                0x00138d58                GPU_SetScissorTest
                0x00138da4                GPU_DepthMap
                0x00138e20                GPU_SetAlphaTest
                0x00138e58                GPU_SetStencilTest
                0x00138ea0                GPU_SetStencilOp
                0x00138ed4                GPU_SetDepthTestAndWriteMask
                0x00138f0c                GPU_SetAlphaBlending
                0x00138f74                GPU_SetColorLogicOp
                0x00138fb8                GPU_SetBlendingColor
                0x00138ff4                GPU_SetTextureEnable
                0x00139040                GPU_SetTexture
                0x001391d8                GPU_SetTextureBorderColor
                0x0013926c                GPU_SetAttributeBuffers
                0x00139468                GPU_SetAttributeBuffersAddress
                0x00139494                GPU_SetFaceCulling
                0x001394c0                GPU_SetCombinerBufferWrite
                0x001394f4                GPU_SetTexEnv
                0x0013956c                GPU_DrawArray
                0x0013969c                GPU_DrawElements
                0x001397d0                GPU_FinishDrawing
                0x0013982c                GPU_SetShaderOutmap
                0x00139874                GPU_SendShaderCode
                0x0013992c                GPU_SendOperandDescriptors
 .text          0x001399a0        0x0 c:/devkitPro/libctru/lib\libctru.a(gpuResetSequence.o)
 .text          0x001399a0      0x7f4 c:/devkitPro/libctru/lib\libctru.a(shaderProgram.o)
                0x001399a0                shaderInstanceInit
                0x00139ba8                shaderInstanceFree
                0x00139be0                shaderInstanceSetBool
                0x00139c20                shaderInstanceGetBool
                0x00139c6c                shaderInstanceGetUniformLocation
                0x00139c8c                shaderProgramInit
                0x00139ca4                shaderProgramFree
                0x00139cd4                shaderProgramSetVsh
                0x00139d40                shaderProgramSetGsh
                0x00139db4                shaderProgramUse
 .text          0x0013a194      0x348 c:/devkitPro/libctru/lib\libctru.a(shbin.o)
                0x0013a194                DVLB_Free
                0x0013a1d0                DVLE_GetUniformRegister
                0x0013a24c                DVLE_GenerateOutmap
                0x0013a344                DVLB_ParseFile
 .text          0x0013a4dc     0x1d4c c:/devkitPro/libctru/lib\libctru.a(apt.o)
                0x0013a540                _aptDebug
                0x0013a544                aptInitCaptureInfo
                0x0013a5f4                aptWaitStatusEvent
                0x0013a61c                aptHook
                0x0013a654                aptUnhook
                0x0013a680                aptGetStatus
                0x0013a6b8                aptSetStatus
                0x0013a71c                aptGetStatusPower
                0x0013a754                aptSetStatusPower
                0x0013a78c                aptOpenSession
                0x0013a7b0                aptCloseSession
                0x0013a7d8                aptSignalReadyForSleep
                0x0013a7e8                APT_GetLockHandle
                0x0013a838                APT_Initialize
                0x0013a8a0                APT_Finalize
                0x0013a8dc                APT_HardwareResetAsync
                0x0013a910                APT_Enable
                0x0013a94c                APT_GetAppletManInfo
                0x0013a9cc                aptGetMenuAppID
                0x0013aa08                APT_GetAppletProgramInfo
                0x0013aa5c                APT_IsRegistered
                0x0013aaac                APT_InquireNotification
                0x0013aafc                APT_PrepareToJumpToHomeMenu
                0x0013ab30                APT_JumpToHomeMenu
                0x0013ab80                APT_PrepareToJumpToApplication
                0x0013abbc                APT_JumpToApplication
                0x0013ac0c                APT_NotifyToWait
                0x0013ac48                APT_AppletUtility
                0x0013acd0                aptAppletUtility_Exit_RetToApp
                0x0013adf0                aptAppletClosed
                0x0013af2c                aptInit
                0x0013b0e4                APT_GlanceParameter
                0x0013b158                APT_ReceiveParameter
                0x0013b1cc                APT_SendParameter
                0x0013b23c                APT_SendCaptureBufferInfo
                0x0013b288                aptReturnToMenu
                0x0013b45c                APT_ReplySleepQuery
                0x0013b49c                APT_ReplySleepNotificationComplete
                0x0013b4d8                aptEventHandler
                0x0013b7e4                APT_PrepareToCloseApplication
                0x0013b820                APT_CloseApplication
                0x0013b878                aptExit
                0x0013ba64                APT_SetAppCpuTimeLimit
                0x0013baa8                APT_GetAppCpuTimeLimit
                0x0013bafc                APT_CheckNew3DS_Application
                0x0013bb58                APT_CheckNew3DS_System
                0x0013bbb4                APT_CheckNew3DS
                0x0013bc28                APT_PrepareToDoAppJump
                0x0013bc74                APT_DoAppJump
                0x0013bcdc                APT_PrepareToStartLibraryApplet
                0x0013bd18                APT_StartLibraryApplet
                0x0013bd78                aptAppletStarted
                0x0013be7c                aptMainLoop
                0x0013bff4                APT_LaunchLibraryApplet
                0x0013c18c                APT_PrepareToStartSystemApplet
                0x0013c1c8                APT_StartSystemApplet
 .text          0x0013c228      0x8a0 c:/devkitPro/libctru/lib\libctru.a(gsp.o)
                0x0013c30c                gspInit
                0x0013c320                gspExit
                0x0013c338                gspInitEventHandler
                0x0013c404                gspExitEventHandler
                0x0013c45c                gspWaitForEvent
                0x0013c4b4                GSPGPU_WriteHWRegs
                0x0013c524                GSPGPU_WriteHWRegsWithMask
                0x0013c5b0                GSPGPU_ReadHWRegs
                0x0013c620                GSPGPU_SetBufferSwap
                0x0013c694                GSPGPU_FlushDataCache
                0x0013c6e8                GSPGPU_InvalidateDataCache
                0x0013c73c                GSPGPU_SetLcdForceBlack
                0x0013c778                GSPGPU_TriggerCmdReqQueue
                0x0013c7ac                GSPGPU_RegisterInterruptRelayQueue
                0x0013c818                GSPGPU_UnregisterInterruptRelayQueue
                0x0013c84c                GSPGPU_AcquireRight
                0x0013c89c                GSPGPU_ReleaseRight
                0x0013c8d0                GSPGPU_ImportDisplayCaptureInfo
                0x0013c954                GSPGPU_SaveVramSysArea
                0x0013c988                GSPGPU_RestoreVramSysArea
                0x0013c9bc                GSPGPU_SubmitGxCommand
 .text          0x0013cac8      0x264 c:/devkitPro/libctru/lib\libctru.a(gx.o)
                0x0013cac8                GX_RequestDma
                0x0013cb1c                GX_SetCommandList_Last
                0x0013cb84                GX_SetMemoryFill
                0x0013cbf8                GX_SetDisplayTransfer
                0x0013cc5c                GX_SetTextureCopy
                0x0013ccc4                GX_SetCommandList_First
 .text          0x0013cd2c      0x708 c:/devkitPro/libctru/lib\libctru.a(hid.o)
                0x0013cd2c                hidExit
                0x0013cdd0                hidWaitForEvent
                0x0013ce28                hidCheckSectionUpdateTime
                0x0013ce64                hidScanInput
                0x0013d0ac                hidKeysHeld
                0x0013d0bc                hidKeysDown
                0x0013d0cc                hidKeysUp
                0x0013d0dc                hidTouchRead
                0x0013d0f4                hidCircleRead
                0x0013d10c                hidAccelRead
                0x0013d12c                hidGyroRead
                0x0013d14c                HIDUSER_GetHandles
                0x0013d1dc                hidInit
                0x0013d310                HIDUSER_EnableAccelerometer
                0x0013d33c                HIDUSER_DisableAccelerometer
                0x0013d368                HIDUSER_EnableGyroscope
                0x0013d394                HIDUSER_DisableGyroscope
                0x0013d3c0                HIDUSER_GetGyroscopeRawToDpsCoefficient
                0x0013d3fc                HIDUSER_GetSoundVolume
 .text          0x0013d434      0x388 c:/devkitPro/libctru/lib\libctru.a(irrst.o)
                0x0013d434                irrstWaitForEvent
                0x0013d480                irrstCheckSectionUpdateTime
                0x0013d4bc                irrstScanInput
                0x0013d570                irrstKeysHeld
                0x0013d588                irrstCstickRead
                0x0013d5a0                IRRST_GetHandles
                0x0013d5f0                IRRST_Initialize
                0x0013d628                irrstInit
                0x0013d70c                IRRST_Shutdown
                0x0013d738                irrstExit
 .text          0x0013d7bc       0x70 c:/devkitPro/libctru/lib\libctru.a(rbtree_find.o)
                0x0013d7bc                rbtree_find
 .text          0x0013d82c       0x14 c:/devkitPro/libctru/lib\libctru.a(rbtree_init.o)
                0x0013d82c                rbtree_init
 .text          0x0013d840      0x1f4 c:/devkitPro/libctru/lib\libctru.a(rbtree_insert.o)
                0x0013da24                rbtree_insert
                0x0013da2c                rbtree_insert_multi
 .text          0x0013da34      0x340 c:/devkitPro/libctru/lib\libctru.a(rbtree_remove.o)
                0x0013da34                rbtree_remove
 .text          0x0013dd74       0xac c:/devkitPro/libctru/lib\libctru.a(rbtree_rotate.o)
                0x0013dd74                rbtree_rotate
 .text          0x0013de20       0xa4 c:/devkitPro/libctru/lib\libctru.a(allocateHeaps.o)
                0x0013de20                __system_allocateHeaps
 .text          0x0013dec4       0xf4 c:/devkitPro/libctru/lib\libctru.a(initArgv.o)
                0x0013dec4                __system_initArgv
 .text          0x0013dfb8       0x4c c:/devkitPro/libctru/lib\libctru.a(initSystem.o)
                0x0013dfb8                __libctru_init
 *fill*         0x0013e004        0xc 
 .text          0x0013e010      0x460 c:/devkitPro/libctru/lib\libctru.a(svc.o)
                0x0013e010                svcControlMemory
                0x0013e030                svcQueryMemory
                0x0013e060                svcExitProcess
                0x0013e068                svcCreateThread
                0x0013e088                svcExitThread
                0x0013e090                svcSleepThread
                0x0013e098                svcGetThreadPriority
                0x0013e0ac                svcSetThreadPriority
                0x0013e0b4                svcGetThreadAffinityMask
                0x0013e0bc                svcSetThreadAffinityMask
                0x0013e0c4                svcGetThreadIdealProcessor
                0x0013e0d8                svcSetThreadIdealProcessor
                0x0013e0e0                svcGetProcessorID
                0x0013e0e8                svcCreateMutex
                0x0013e0fc                svcReleaseMutex
                0x0013e104                svcCreateSemaphore
                0x0013e118                svcReleaseSemaphore
                0x0013e12c                svcCreateEvent
                0x0013e140                svcSignalEvent
                0x0013e148                svcClearEvent
                0x0013e150                svcCreateTimer
                0x0013e164                svcSetTimer
                0x0013e16c                svcCancelTimer
                0x0013e174                svcClearTimer
                0x0013e17c                svcCreateMemoryBlock
                0x0013e194                svcMapMemoryBlock
                0x0013e19c                svcUnmapMemoryBlock
                0x0013e1a4                svcCreateAddressArbiter
                0x0013e1b8                svcArbitrateAddress
                0x0013e1d8                svcCloseHandle
                0x0013e1e0                svcWaitSynchronization
                0x0013e1e8                svcWaitSynchronizationN
                0x0013e210                svcDuplicateHandle
                0x0013e224                svcGetSystemTick
                0x0013e22c                svcGetSystemInfo
                0x0013e244                svcGetProcessInfo
                0x0013e25c                svcGetThreadInfo
                0x0013e274                svcConnectToPort
                0x0013e288                svcSendSyncRequest
                0x0013e290                svcOpenProcess
                0x0013e2a4                svcOpenThread
                0x0013e2b8                svcGetProcessId
                0x0013e2cc                svcGetProcessIdOfThread
                0x0013e2e0                svcGetThreadId
                0x0013e2f4                svcBreak
                0x0013e2fc                svcOutputDebugString
                0x0013e304                svcCreatePort
                0x0013e324                svcAcceptSession
                0x0013e33c                svcReplyAndReceive
                0x0013e354                svcInvalidateProcessDataCache
                0x0013e35c                svcFlushProcessDataCache
                0x0013e364                svcStartInterProcessDma
                0x0013e384                svcStopDma
                0x0013e38c                svcGetDmaState
                0x0013e3a0                svcDebugActiveProcess
                0x0013e3b4                svcBreakDebugProcess
                0x0013e3bc                svcTerminateDebugProcess
                0x0013e3c4                svcGetProcessDebugEvent
                0x0013e3cc                svcContinueDebugEvent
                0x0013e3d4                svcGetProcessList
                0x0013e3f4                svcReadProcessMemory
                0x0013e3fc                svcWriteProcessMemory
                0x0013e404                svcControlProcessMemory
                0x0013e41c                svcMapProcessMemory
                0x0013e424                svcUnmapProcessMemory
                0x0013e42c                svcTerminateProcess
                0x0013e434                svcBackdoor
                0x0013e43c                svcKernelSetState
                0x0013e444                svcQueryProcessMemory
 .text          0x0013e470       0x64 c:/devkitPro/libctru/lib\libctru.a(stack_adjust.o)
                0x0013e470                initSystem
                0x0013e4b4                __ctru_exit
 .text          0x0013e4d4      0x3b8 c:/devkitPro/libctru/lib\libctru.a(srv.o)
                0x0013e4d4                __get_handle_from_list
                0x0013e56c                __destroy_handle_list
                0x0013e5c0                srvExit
                0x0013e5e8                srvGetSessionHandle
                0x0013e5f4                srvRegisterClient
                0x0013e62c                srvInit
                0x0013e694                srvGetServiceHandle
                0x0013e714                srvRegisterService
                0x0013e770                srvUnregisterService
                0x0013e7bc                srvPmInit
                0x0013e810                srvRegisterProcess
                0x0013e858                srvUnregisterProcess
 .text          0x0013e88c      0x118 c:/devkitPro/libctru/lib\libctru.a(rbtree_iterator.o)
                0x0013e88c                rbtree_node_next
                0x0013e918                rbtree_node_prev
 .text          0x0013e9a4       0x1c c:/devkitPro/libctru/lib\libctru.a(appExit.o)
                0x0013e9a4                __appExit
 .text          0x0013e9c0       0x20 c:/devkitPro/libctru/lib\libctru.a(appInit.o)
                0x0013e9c0                __appInit
 .text          0x0013e9e0       0x90 c:/devkitPro/libctru/lib\libctru.a(ctru_exit.o)
                0x0013e9e0                __libctru_exit
 .text          0x0013ea70      0xffc c:/devkitPro/libctru/lib\libctru.a(sdmc_dev.o)
                0x0013f8ec                sdmcInit
                0x0013fa1c                sdmcExit
 .text          0x0013fa6c      0xc88 c:/devkitPro/libctru/lib\libctru.a(fs.o)
                0x0013fa6c                FS_makePath
                0x0013fa98                fsExit
                0x0013fabc                fsGetSessionHandle
                0x0013fac8                FSUSER_Initialize
                0x0013fb3c                fsInit
                0x0013fba8                FSUSER_OpenFile
                0x0013fc54                FSUSER_OpenFileDirectly
                0x0013fd20                FSUSER_DeleteFile
                0x0013fda8                FSUSER_RenameFile
                0x0013fe6c                FSUSER_DeleteDirectory
                0x0013fef4                FSUSER_DeleteDirectoryRecursively
                0x0013ff7c                FSUSER_CreateFile
                0x00140014                FSUSER_CreateDirectory
                0x001400a0                FSUSER_RenameDirectory
                0x00140164                FSUSER_OpenDirectory
                0x001401f8                FSUSER_OpenArchive
                0x00140280                FSUSER_CloseArchive
                0x001402d8                FSUSER_GetSdmcArchiveResource
                0x00140354                FSUSER_GetNandArchiveResource
                0x001403d0                FSUSER_IsSdmcDetected
                0x0014041c                FSUSER_IsSdmcWritable
                0x00140468                FSFILE_Close
                0x001404ac                FSFILE_Read
                0x00140508                FSFILE_Write
                0x0014056c                FSFILE_GetSize
                0x001405ac                FSFILE_SetSize
                0x001405d8                FSFILE_GetAttributes
                0x00140610                FSFILE_SetAttributes
                0x00140638                FSFILE_Flush
                0x0014065c                FSDIR_Read
                0x001406b0                FSDIR_Close
 .text          0x001406f4      0x138 c:/devkitPro/libctru/lib\libctru.a(decode_utf8.o)
                0x001406f4                decode_utf8
 .text          0x0014082c       0xe8 c:/devkitPro/libctru/lib\libctru.a(utf16_to_utf8.o)
                0x0014082c                utf16_to_utf8
 .text          0x00140914       0xb8 c:/devkitPro/libctru/lib\libctru.a(utf8_to_utf16.o)
                0x00140914                utf8_to_utf16
 .text          0x001409cc       0x60 c:/devkitPro/libctru/lib\libctru.a(decode_utf16.o)
                0x001409cc                decode_utf16
 .text          0x00140a2c       0x68 c:/devkitPro/libctru/lib\libctru.a(encode_utf16.o)
                0x00140a2c                encode_utf16
 .text          0x00140a94      0x104 c:/devkitPro/libctru/lib\libctru.a(encode_utf8.o)
                0x00140a94                encode_utf8
 .text          0x00140b98        0x0 c:/devkitpro/devkitarm/bin/../lib/gcc/arm-none-eabi/4.9.2/../../../../arm-none-eabi/lib/armv6k/fpu\libm.a(lib_a-sf_cos.o)
 .text          0x00140b98        0x0 c:/devkitpro/devkitarm/bin/../lib/gcc/arm-none-eabi/4.9.2/../../../../arm-none-eabi/lib/armv6k/fpu\libm.a(lib_a-s_floor.o)
 .text          0x00140b98        0x0 c:/devkitpro/devkitarm/bin/../lib/gcc/arm-none-eabi/4.9.2/../../../../arm-none-eabi/lib/armv6k/fpu\libm.a(lib_a-s_frexp.o)
 .text          0x00140b98        0x0 c:/devkitpro/devkitarm/bin/../lib/gcc/arm-none-eabi/4.9.2/../../../../arm-none-eabi/lib/armv6k/fpu\libm.a(lib_a-sf_sin.o)
 .text          0x00140b98        0x0 c:/devkitpro/devkitarm/bin/../lib/gcc/arm-none-eabi/4.9.2/../../../../arm-none-eabi/lib/armv6k/fpu\libm.a(lib_a-s_modf.o)
 .text          0x00140b98        0x0 c:/devkitpro/devkitarm/bin/../lib/gcc/arm-none-eabi/4.9.2/../../../../arm-none-eabi/lib/armv6k/fpu\libm.a(lib_a-w_pow.o)
 .text          0x00140b98        0x0 c:/devkitpro/devkitarm/bin/../lib/gcc/arm-none-eabi/4.9.2/../../../../arm-none-eabi/lib/armv6k/fpu\libm.a(lib_a-ef_rem_pio2.o)
 .text          0x00140b98        0x0 c:/devkitpro/devkitarm/bin/../lib/gcc/arm-none-eabi/4.9.2/../../../../arm-none-eabi/lib/armv6k/fpu\libm.a(lib_a-e_pow.o)
 .text          0x00140b98        0x0 c:/devkitpro/devkitarm/bin/../lib/gcc/arm-none-eabi/4.9.2/../../../../arm-none-eabi/lib/armv6k/fpu\libm.a(lib_a-e_sqrt.o)
 .text          0x00140b98        0x0 c:/devkitpro/devkitarm/bin/../lib/gcc/arm-none-eabi/4.9.2/../../../../arm-none-eabi/lib/armv6k/fpu\libm.a(lib_a-kf_cos.o)
 .text          0x00140b98        0x0 c:/devkitpro/devkitarm/bin/../lib/gcc/arm-none-eabi/4.9.2/../../../../arm-none-eabi/lib/armv6k/fpu\libm.a(lib_a-kf_rem_pio2.o)
 .text          0x00140b98        0x0 c:/devkitpro/devkitarm/bin/../lib/gcc/arm-none-eabi/4.9.2/../../../../arm-none-eabi/lib/armv6k/fpu\libm.a(lib_a-kf_sin.o)
 .text          0x00140b98        0x0 c:/devkitpro/devkitarm/bin/../lib/gcc/arm-none-eabi/4.9.2/../../../../arm-none-eabi/lib/armv6k/fpu\libm.a(lib_a-s_fabs.o)
 .text          0x00140b98        0x0 c:/devkitpro/devkitarm/bin/../lib/gcc/arm-none-eabi/4.9.2/../../../../arm-none-eabi/lib/armv6k/fpu\libm.a(lib_a-sf_fabs.o)
 .text          0x00140b98        0x0 c:/devkitpro/devkitarm/bin/../lib/gcc/arm-none-eabi/4.9.2/../../../../arm-none-eabi/lib/armv6k/fpu\libm.a(lib_a-sf_floor.o)
 .text          0x00140b98        0x0 c:/devkitpro/devkitarm/bin/../lib/gcc/arm-none-eabi/4.9.2/../../../../arm-none-eabi/lib/armv6k/fpu\libm.a(lib_a-s_finite.o)
 .text          0x00140b98        0x0 c:/devkitpro/devkitarm/bin/../lib/gcc/arm-none-eabi/4.9.2/../../../../arm-none-eabi/lib/armv6k/fpu\libm.a(lib_a-s_fpclassify.o)
 .text          0x00140b98        0x0 c:/devkitpro/devkitarm/bin/../lib/gcc/arm-none-eabi/4.9.2/../../../../arm-none-eabi/lib/armv6k/fpu\libm.a(lib_a-sf_scalbn.o)
 .text          0x00140b98        0x0 c:/devkitpro/devkitarm/bin/../lib/gcc/arm-none-eabi/4.9.2/../../../../arm-none-eabi/lib/armv6k/fpu\libm.a(lib_a-s_lib_ver.o)
 .text          0x00140b98        0x0 c:/devkitpro/devkitarm/bin/../lib/gcc/arm-none-eabi/4.9.2/../../../../arm-none-eabi/lib/armv6k/fpu\libm.a(lib_a-s_matherr.o)
 .text          0x00140b98        0x0 c:/devkitpro/devkitarm/bin/../lib/gcc/arm-none-eabi/4.9.2/../../../../arm-none-eabi/lib/armv6k/fpu\libm.a(lib_a-s_nan.o)
 .text          0x00140b98        0x0 c:/devkitpro/devkitarm/bin/../lib/gcc/arm-none-eabi/4.9.2/../../../../arm-none-eabi/lib/armv6k/fpu\libm.a(lib_a-s_rint.o)
 .text          0x00140b98        0x0 c:/devkitpro/devkitarm/bin/../lib/gcc/arm-none-eabi/4.9.2/../../../../arm-none-eabi/lib/armv6k/fpu\libm.a(lib_a-s_scalbn.o)
 .text          0x00140b98        0x0 c:/devkitpro/devkitarm/bin/../lib/gcc/arm-none-eabi/4.9.2/../../../../arm-none-eabi/lib/armv6k/fpu\libm.a(lib_a-s_copysign.o)
 .text          0x00140b98        0x0 c:/devkitpro/devkitarm/bin/../lib/gcc/arm-none-eabi/4.9.2/../../../../arm-none-eabi/lib/armv6k/fpu\libm.a(lib_a-sf_copysign.o)
 .text          0x00140b98      0x20c c:/devkitpro/devkitarm/bin/../lib/gcc/arm-none-eabi/4.9.2/armv6k/fpu\libgcc.a(_udivsi3.o)
                0x00140b98                __aeabi_uidiv
                0x00140b98                __udivsi3
                0x00140d84                __aeabi_uidivmod
 .text          0x00140da4      0x240 c:/devkitpro/devkitarm/bin/../lib/gcc/arm-none-eabi/4.9.2/armv6k/fpu\libgcc.a(_divsi3.o)
                0x00140da4                __divsi3
                0x00140da4                __aeabi_idiv
                0x00140fc4                __aeabi_idivmod
 .text          0x00140fe4        0x4 c:/devkitpro/devkitarm/bin/../lib/gcc/arm-none-eabi/4.9.2/armv6k/fpu\libgcc.a(_dvmd_tls.o)
                0x00140fe4                __aeabi_idiv0
                0x00140fe4                __aeabi_ldiv0
 .text          0x00140fe8      0x250 c:/devkitpro/devkitarm/bin/../lib/gcc/arm-none-eabi/4.9.2/armv6k/fpu\libgcc.a(_arm_addsubsf3.o)
                0x00140fe8                __aeabi_frsub
                0x00140ff0                __subsf3
                0x00140ff0                __aeabi_fsub
                0x00140ff4                __aeabi_fadd
                0x00140ff4                __addsf3
                0x00141184                __aeabi_ui2f
                0x00141184                __floatunsisf
                0x0014118c                __aeabi_i2f
                0x0014118c                __floatsisf
                0x001411ac                __aeabi_ul2f
                0x001411ac                __floatundisf
                0x001411bc                __aeabi_l2f
                0x001411bc                __floatdisf
 .text          0x00141238        0x0 c:/devkitpro/devkitarm/bin/../lib/gcc/arm-none-eabi/4.9.2/../../../../arm-none-eabi/lib/armv6k/fpu\libg.a(lib_a-abort.o)
 .text          0x00141238        0x0 c:/devkitpro/devkitarm/bin/../lib/gcc/arm-none-eabi/4.9.2/../../../../arm-none-eabi/lib/armv6k/fpu\libg.a(lib_a-atof.o)
 .text          0x00141238        0x0 c:/devkitpro/devkitarm/bin/../lib/gcc/arm-none-eabi/4.9.2/../../../../arm-none-eabi/lib/armv6k/fpu\libg.a(lib_a-bsearch.o)
 .text          0x00141238        0x0 c:/devkitpro/devkitarm/bin/../lib/gcc/arm-none-eabi/4.9.2/../../../../arm-none-eabi/lib/armv6k/fpu\libg.a(lib_a-errno.o)
 .text          0x00141238        0x0 c:/devkitpro/devkitarm/bin/../lib/gcc/arm-none-eabi/4.9.2/../../../../arm-none-eabi/lib/armv6k/fpu\libg.a(lib_a-exit.o)
 .text          0x00141238        0x0 c:/devkitpro/devkitarm/bin/../lib/gcc/arm-none-eabi/4.9.2/../../../../arm-none-eabi/lib/armv6k/fpu\libg.a(lib_a-fclose.o)
 .text          0x00141238        0x0 c:/devkitpro/devkitarm/bin/../lib/gcc/arm-none-eabi/4.9.2/../../../../arm-none-eabi/lib/armv6k/fpu\libg.a(lib_a-fflush.o)
 .text          0x00141238        0x0 c:/devkitpro/devkitarm/bin/../lib/gcc/arm-none-eabi/4.9.2/../../../../arm-none-eabi/lib/armv6k/fpu\libg.a(lib_a-findfp.o)
 .text          0x00141238        0x0 c:/devkitpro/devkitarm/bin/../lib/gcc/arm-none-eabi/4.9.2/../../../../arm-none-eabi/lib/armv6k/fpu\libg.a(lib_a-fini.o)
 .text          0x00141238        0x0 c:/devkitpro/devkitarm/bin/../lib/gcc/arm-none-eabi/4.9.2/../../../../arm-none-eabi/lib/armv6k/fpu\libg.a(lib_a-fopen.o)
 .text          0x00141238        0x0 c:/devkitpro/devkitarm/bin/../lib/gcc/arm-none-eabi/4.9.2/../../../../arm-none-eabi/lib/armv6k/fpu\libg.a(lib_a-fprintf.o)
 .text          0x00141238        0x0 c:/devkitpro/devkitarm/bin/../lib/gcc/arm-none-eabi/4.9.2/../../../../arm-none-eabi/lib/armv6k/fpu\libg.a(lib_a-fputc.o)
 .text          0x00141238        0x0 c:/devkitpro/devkitarm/bin/../lib/gcc/arm-none-eabi/4.9.2/../../../../arm-none-eabi/lib/armv6k/fpu\libg.a(lib_a-fread.o)
 .text          0x00141238        0x0 c:/devkitpro/devkitarm/bin/../lib/gcc/arm-none-eabi/4.9.2/../../../../arm-none-eabi/lib/armv6k/fpu\libg.a(lib_a-freer.o)
 .text          0x00141238        0x0 c:/devkitpro/devkitarm/bin/../lib/gcc/arm-none-eabi/4.9.2/../../../../arm-none-eabi/lib/armv6k/fpu\libg.a(lib_a-fseek.o)
 .text          0x00141238        0x0 c:/devkitpro/devkitarm/bin/../lib/gcc/arm-none-eabi/4.9.2/../../../../arm-none-eabi/lib/armv6k/fpu\libg.a(lib_a-fseeko.o)
 .text          0x00141238        0x0 c:/devkitpro/devkitarm/bin/../lib/gcc/arm-none-eabi/4.9.2/../../../../arm-none-eabi/lib/armv6k/fpu\libg.a(lib_a-fwalk.o)
 .text          0x00141238        0x0 c:/devkitpro/devkitarm/bin/../lib/gcc/arm-none-eabi/4.9.2/../../../../arm-none-eabi/lib/armv6k/fpu\libg.a(lib_a-fwrite.o)
 .text          0x00141238        0x0 c:/devkitpro/devkitarm/bin/../lib/gcc/arm-none-eabi/4.9.2/../../../../arm-none-eabi/lib/armv6k/fpu\libg.a(lib_a-gmtime.o)
 .text          0x00141238        0x0 c:/devkitpro/devkitarm/bin/../lib/gcc/arm-none-eabi/4.9.2/../../../../arm-none-eabi/lib/armv6k/fpu\libg.a(lib_a-gmtime_r.o)
 .text          0x00141238        0x0 c:/devkitpro/devkitarm/bin/../lib/gcc/arm-none-eabi/4.9.2/../../../../arm-none-eabi/lib/armv6k/fpu\libg.a(lib_a-impure.o)
 .text          0x00141238        0x0 c:/devkitpro/devkitarm/bin/../lib/gcc/arm-none-eabi/4.9.2/../../../../arm-none-eabi/lib/armv6k/fpu\libg.a(lib_a-init.o)
 .text          0x00141238        0x0 c:/devkitpro/devkitarm/bin/../lib/gcc/arm-none-eabi/4.9.2/../../../../arm-none-eabi/lib/armv6k/fpu\libg.a(lib_a-makebuf.o)
 .text          0x00141238        0x0 c:/devkitpro/devkitarm/bin/../lib/gcc/arm-none-eabi/4.9.2/../../../../arm-none-eabi/lib/armv6k/fpu\libg.a(lib_a-malloc.o)
 .text          0x00141238        0x0 c:/devkitpro/devkitarm/bin/../lib/gcc/arm-none-eabi/4.9.2/../../../../arm-none-eabi/lib/armv6k/fpu\libg.a(lib_a-mallocr.o)
 .text          0x00141238        0x0 c:/devkitpro/devkitarm/bin/../lib/gcc/arm-none-eabi/4.9.2/../../../../arm-none-eabi/lib/armv6k/fpu\libg.a(lib_a-memcmp.o)
 .text          0x00141238        0x0 c:/devkitpro/devkitarm/bin/../lib/gcc/arm-none-eabi/4.9.2/../../../../arm-none-eabi/lib/armv6k/fpu\libg.a(lib_a-memcpy.o)
 .text          0x00141238        0x0 c:/devkitpro/devkitarm/bin/../lib/gcc/arm-none-eabi/4.9.2/../../../../arm-none-eabi/lib/armv6k/fpu\libg.a(lib_a-memset.o)
 .text          0x00141238        0x0 c:/devkitpro/devkitarm/bin/../lib/gcc/arm-none-eabi/4.9.2/../../../../arm-none-eabi/lib/armv6k/fpu\libg.a(lib_a-mlock.o)
 .text          0x00141238        0x0 c:/devkitpro/devkitarm/bin/../lib/gcc/arm-none-eabi/4.9.2/../../../../arm-none-eabi/lib/armv6k/fpu\libg.a(lib_a-month_lengths.o)
 .text          0x00141238        0x0 c:/devkitpro/devkitarm/bin/../lib/gcc/arm-none-eabi/4.9.2/../../../../arm-none-eabi/lib/armv6k/fpu\libg.a(lib_a-printf.o)
 .text          0x00141238        0x0 c:/devkitpro/devkitarm/bin/../lib/gcc/arm-none-eabi/4.9.2/../../../../arm-none-eabi/lib/armv6k/fpu\libg.a(lib_a-putchar.o)
 .text          0x00141238        0x0 c:/devkitpro/devkitarm/bin/../lib/gcc/arm-none-eabi/4.9.2/../../../../arm-none-eabi/lib/armv6k/fpu\libg.a(lib_a-putc.o)
 .text          0x00141238        0x0 c:/devkitpro/devkitarm/bin/../lib/gcc/arm-none-eabi/4.9.2/../../../../arm-none-eabi/lib/armv6k/fpu\libg.a(lib_a-rand.o)
 .text          0x00141238        0x0 c:/devkitpro/devkitarm/bin/../lib/gcc/arm-none-eabi/4.9.2/../../../../arm-none-eabi/lib/armv6k/fpu\libg.a(lib_a-realloc.o)
 .text          0x00141238        0x0 c:/devkitpro/devkitarm/bin/../lib/gcc/arm-none-eabi/4.9.2/../../../../arm-none-eabi/lib/armv6k/fpu\libg.a(lib_a-reallocr.o)
 .text          0x00141238        0x0 c:/devkitpro/devkitarm/bin/../lib/gcc/arm-none-eabi/4.9.2/../../../../arm-none-eabi/lib/armv6k/fpu\libg.a(lib_a-refill.o)
 .text          0x00141238        0x0 c:/devkitpro/devkitarm/bin/../lib/gcc/arm-none-eabi/4.9.2/../../../../arm-none-eabi/lib/armv6k/fpu\libg.a(lib_a-remove.o)
 .text          0x00141238       0x2c c:/devkitpro/devkitarm/bin/../lib/gcc/arm-none-eabi/4.9.2/../../../../arm-none-eabi/lib/armv6k/fpu\libg.a(lib_a-setjmp.o)
                0x00141238                setjmp
                0x0014124c                longjmp
 .text          0x00141264        0x0 c:/devkitpro/devkitarm/bin/../lib/gcc/arm-none-eabi/4.9.2/../../../../arm-none-eabi/lib/armv6k/fpu\libg.a(lib_a-signal.o)
 .text          0x00141264        0x0 c:/devkitpro/devkitarm/bin/../lib/gcc/arm-none-eabi/4.9.2/../../../../arm-none-eabi/lib/armv6k/fpu\libg.a(lib_a-stdio.o)
 *fill*         0x00141264       0x1c 
 .text          0x00141280      0x3a0 c:/devkitpro/devkitarm/bin/../lib/gcc/arm-none-eabi/4.9.2/../../../../arm-none-eabi/lib/armv6k/fpu\libg.a(lib_a-strcmp.o)
                0x00141288                strcmp
 .text          0x00141620        0x0 c:/devkitpro/devkitarm/bin/../lib/gcc/arm-none-eabi/4.9.2/../../../../arm-none-eabi/lib/armv6k/fpu\libg.a(lib_a-strcpy.o)
 .text          0x00141620        0x0 c:/devkitpro/devkitarm/bin/../lib/gcc/arm-none-eabi/4.9.2/../../../../arm-none-eabi/lib/armv6k/fpu\libg.a(lib_a-strerror.o)
 .text          0x00141620        0x0 c:/devkitpro/devkitarm/bin/../lib/gcc/arm-none-eabi/4.9.2/../../../../arm-none-eabi/lib/armv6k/fpu\libg.a(lib_a-strlen.o)
 .text          0x00141620        0x0 c:/devkitpro/devkitarm/bin/../lib/gcc/arm-none-eabi/4.9.2/../../../../arm-none-eabi/lib/armv6k/fpu\libg.a(lib_a-strncat.o)
 .text          0x00141620        0x0 c:/devkitpro/devkitarm/bin/../lib/gcc/arm-none-eabi/4.9.2/../../../../arm-none-eabi/lib/armv6k/fpu\libg.a(lib_a-strncpy.o)
 .text          0x00141620        0x0 c:/devkitpro/devkitarm/bin/../lib/gcc/arm-none-eabi/4.9.2/../../../../arm-none-eabi/lib/armv6k/fpu\libg.a(lib_a-strtod.o)
 .text          0x00141620        0x0 c:/devkitpro/devkitarm/bin/../lib/gcc/arm-none-eabi/4.9.2/../../../../arm-none-eabi/lib/armv6k/fpu\libg.a(lib_a-time.o)
 .text          0x00141620        0x0 c:/devkitpro/devkitarm/bin/../lib/gcc/arm-none-eabi/4.9.2/../../../../arm-none-eabi/lib/armv6k/fpu\libg.a(lib_a-u_strerr.o)
 .text          0x00141620        0x0 c:/devkitpro/devkitarm/bin/../lib/gcc/arm-none-eabi/4.9.2/../../../../arm-none-eabi/lib/armv6k/fpu\libg.a(lib_a-vfprintf.o)
 .text          0x00141620        0x0 c:/devkitpro/devkitarm/bin/../lib/gcc/arm-none-eabi/4.9.2/../../../../arm-none-eabi/lib/armv6k/fpu\libg.a(lib_a-wbuf.o)
 .text          0x00141620        0x0 c:/devkitpro/devkitarm/bin/../lib/gcc/arm-none-eabi/4.9.2/../../../../arm-none-eabi/lib/armv6k/fpu\libg.a(lib_a-wcrtomb.o)
 .text          0x00141620        0x0 c:/devkitpro/devkitarm/bin/../lib/gcc/arm-none-eabi/4.9.2/../../../../arm-none-eabi/lib/armv6k/fpu\libg.a(lib_a-wcsrtombs.o)
 .text          0x00141620        0x0 c:/devkitpro/devkitarm/bin/../lib/gcc/arm-none-eabi/4.9.2/../../../../arm-none-eabi/lib/armv6k/fpu\libg.a(lib_a-wctomb_r.o)
 .text          0x00141620        0x0 c:/devkitpro/devkitarm/bin/../lib/gcc/arm-none-eabi/4.9.2/../../../../arm-none-eabi/lib/armv6k/fpu\libg.a(lib_a-wsetup.o)
 .text          0x00141620        0x0 c:/devkitpro/devkitarm/bin/../lib/gcc/arm-none-eabi/4.9.2/../../../../arm-none-eabi/lib/armv6k/fpu\libg.a(lib_a-__call_atexit.o)
 .text          0x00141620        0x0 c:/devkitpro/devkitarm/bin/../lib/gcc/arm-none-eabi/4.9.2/../../../../arm-none-eabi/lib/armv6k/fpu\libg.a(lib_a-dtoa.o)
 .text          0x00141620        0x0 c:/devkitpro/devkitarm/bin/../lib/gcc/arm-none-eabi/4.9.2/../../../../arm-none-eabi/lib/armv6k/fpu\libg.a(lib_a-flags.o)
 .text          0x00141620        0x0 c:/devkitpro/devkitarm/bin/../lib/gcc/arm-none-eabi/4.9.2/../../../../arm-none-eabi/lib/armv6k/fpu\libg.a(lib_a-fvwrite.o)
 .text          0x00141620        0x0 c:/devkitpro/devkitarm/bin/../lib/gcc/arm-none-eabi/4.9.2/../../../../arm-none-eabi/lib/armv6k/fpu\libg.a(lib_a-gdtoa-gethex.o)
 .text          0x00141620        0x0 c:/devkitpro/devkitarm/bin/../lib/gcc/arm-none-eabi/4.9.2/../../../../arm-none-eabi/lib/armv6k/fpu\libg.a(lib_a-gdtoa-hexnan.o)
 .text          0x00141620        0x0 c:/devkitpro/devkitarm/bin/../lib/gcc/arm-none-eabi/4.9.2/../../../../arm-none-eabi/lib/armv6k/fpu\libg.a(lib_a-locale.o)
 .text          0x00141620        0x0 c:/devkitpro/devkitarm/bin/../lib/gcc/arm-none-eabi/4.9.2/../../../../arm-none-eabi/lib/armv6k/fpu\libg.a(lib_a-mbtowc_r.o)
 .text          0x00141620        0x0 c:/devkitpro/devkitarm/bin/../lib/gcc/arm-none-eabi/4.9.2/../../../../arm-none-eabi/lib/armv6k/fpu\libg.a(lib_a-memchr.o)
 .text          0x00141620        0x0 c:/devkitpro/devkitarm/bin/../lib/gcc/arm-none-eabi/4.9.2/../../../../arm-none-eabi/lib/armv6k/fpu\libg.a(lib_a-memmove.o)
 .text          0x00141620        0x0 c:/devkitpro/devkitarm/bin/../lib/gcc/arm-none-eabi/4.9.2/../../../../arm-none-eabi/lib/armv6k/fpu\libg.a(lib_a-mprec.o)
 .text          0x00141620        0x0 c:/devkitpro/devkitarm/bin/../lib/gcc/arm-none-eabi/4.9.2/../../../../arm-none-eabi/lib/armv6k/fpu\libg.a(lib_a-sf_nan.o)
 .text          0x00141620        0x0 c:/devkitpro/devkitarm/bin/../lib/gcc/arm-none-eabi/4.9.2/../../../../arm-none-eabi/lib/armv6k/fpu\libg.a(lib_a-strcasecmp.o)
 .text          0x00141620        0x0 c:/devkitpro/devkitarm/bin/../lib/gcc/arm-none-eabi/4.9.2/../../../../arm-none-eabi/lib/armv6k/fpu\libg.a(lib_a-strcat.o)
 .text          0x00141620        0x0 c:/devkitpro/devkitarm/bin/../lib/gcc/arm-none-eabi/4.9.2/../../../../arm-none-eabi/lib/armv6k/fpu\libg.a(lib_a-strchr.o)
 .text          0x00141620        0x0 c:/devkitpro/devkitarm/bin/../lib/gcc/arm-none-eabi/4.9.2/../../../../arm-none-eabi/lib/armv6k/fpu\libg.a(lib_a-strlcpy.o)
 .text          0x00141620        0x0 c:/devkitpro/devkitarm/bin/../lib/gcc/arm-none-eabi/4.9.2/../../../../arm-none-eabi/lib/armv6k/fpu\libg.a(lib_a-strncasecmp.o)
 .text          0x00141620        0x0 c:/devkitpro/devkitarm/bin/../lib/gcc/arm-none-eabi/4.9.2/../../../../arm-none-eabi/lib/armv6k/fpu\libg.a(lib_a-strncmp.o)
 .text          0x00141620        0x0 c:/devkitpro/devkitarm/bin/../lib/gcc/arm-none-eabi/4.9.2/../../../../arm-none-eabi/lib/armv6k/fpu\libg.a(lib_a-strtol.o)
 .text          0x00141620        0x0 c:/devkitpro/devkitarm/bin/../lib/gcc/arm-none-eabi/4.9.2/../../../../arm-none-eabi/lib/armv6k/fpu\libg.a(lib_a-svfiprintf.o)
 .text          0x00141620        0x0 c:/devkitpro/devkitarm/bin/../lib/gcc/arm-none-eabi/4.9.2/../../../../arm-none-eabi/lib/armv6k/fpu\libg.a(lib_a-vfiprintf.o)
 .text          0x00141620        0x0 c:/devkitpro/devkitarm/bin/../lib/gcc/arm-none-eabi/4.9.2/../../../../arm-none-eabi/lib/armv6k/fpu\libg.a(lib_a-wcsnrtombs.o)
 .text          0x00141620        0x0 c:/devkitpro/devkitarm/bin/../lib/gcc/arm-none-eabi/4.9.2/../../../../arm-none-eabi/lib/armv6k/fpu\libg.a(lib_a-callocr.o)
 .text          0x00141620        0x0 c:/devkitpro/devkitarm/bin/../lib/gcc/arm-none-eabi/4.9.2/../../../../arm-none-eabi/lib/armv6k/fpu\libg.a(lib_a-ctype_.o)
 .text          0x00141620        0x0 c:/devkitpro/devkitarm/bin/../lib/gcc/arm-none-eabi/4.9.2/../../../../arm-none-eabi/lib/armv6k/fpu\libg.a(lib_a-fputwc.o)
 .text          0x00141620        0x0 c:/devkitpro/devkitarm/bin/../lib/gcc/arm-none-eabi/4.9.2/../../../../arm-none-eabi/lib/armv6k/fpu\libg.a(lib_a-getenv_r.o)
 .text          0x00141620        0x0 c:/devkitpro/devkitarm/bin/../lib/gcc/arm-none-eabi/4.9.2/../../../../arm-none-eabi/lib/armv6k/fpu\libg.a(lib_a-environ.o)
 .text          0x00141620        0x0 c:/devkitpro/devkitarm/bin/../lib/gcc/arm-none-eabi/4.9.2/../../../../arm-none-eabi/lib/armv6k/fpu\libg.a(lib_a-envlock.o)
 .text          0x00141620      0x1a8 c:/devkitpro/devkitarm/bin/../lib/gcc/arm-none-eabi/4.9.2/../../../../arm-none-eabi/lib/armv6k/fpu\libsysbase.a(iosupport.o)
                0x00141620                setDefaultDevice
                0x00141638                FindDevice
                0x001416e4                RemoveDevice
                0x00141710                AddDevice
                0x001417a4                GetDeviceOpTab
 .text          0x001417c8       0x7c c:/devkitpro/devkitarm/bin/../lib/gcc/arm-none-eabi/4.9.2/../../../../arm-none-eabi/lib/armv6k/fpu\libsysbase.a(close.o)
                0x001417c8                _close_r
 .text          0x00141844       0x6c c:/devkitpro/devkitarm/bin/../lib/gcc/arm-none-eabi/4.9.2/../../../../arm-none-eabi/lib/armv6k/fpu\libsysbase.a(fstat.o)
                0x00141844                _fstat_r
 .text          0x001418b0       0x10 c:/devkitpro/devkitarm/bin/../lib/gcc/arm-none-eabi/4.9.2/../../../../arm-none-eabi/lib/armv6k/fpu\libsysbase.a(getpid.o)
                0x001418b0                _getpid_r
 .text          0x001418c0       0x2c c:/devkitpro/devkitarm/bin/../lib/gcc/arm-none-eabi/4.9.2/../../../../arm-none-eabi/lib/armv6k/fpu\libsysbase.a(gettod.o)
                0x001418c0                _gettimeofday_r
 .text          0x001418ec        0x8 c:/devkitpro/devkitarm/bin/../lib/gcc/arm-none-eabi/4.9.2/../../../../arm-none-eabi/lib/armv6k/fpu\libsysbase.a(isatty.o)
                0x001418ec                _isatty_r
 .text          0x001418f4       0x10 c:/devkitpro/devkitarm/bin/../lib/gcc/arm-none-eabi/4.9.2/../../../../arm-none-eabi/lib/armv6k/fpu\libsysbase.a(kill.o)
                0x001418f4                _kill_r
 .text          0x00141904       0x74 c:/devkitpro/devkitarm/bin/../lib/gcc/arm-none-eabi/4.9.2/../../../../arm-none-eabi/lib/armv6k/fpu\libsysbase.a(lseek.o)
                0x00141904                _lseek_r
 .text          0x00141978       0xc8 c:/devkitpro/devkitarm/bin/../lib/gcc/arm-none-eabi/4.9.2/../../../../arm-none-eabi/lib/armv6k/fpu\libsysbase.a(open.o)
                0x00141978                _open_r
 .text          0x00141a40       0x74 c:/devkitpro/devkitarm/bin/../lib/gcc/arm-none-eabi/4.9.2/../../../../arm-none-eabi/lib/armv6k/fpu\libsysbase.a(read.o)
                0x00141a40                _read_r
 .text          0x00141ab4       0x70 c:/devkitpro/devkitarm/bin/../lib/gcc/arm-none-eabi/4.9.2/../../../../arm-none-eabi/lib/armv6k/fpu\libsysbase.a(sbrk.o)
                0x00141ab4                _sbrk_r
 .text          0x00141b24       0x5c c:/devkitpro/devkitarm/bin/../lib/gcc/arm-none-eabi/4.9.2/../../../../arm-none-eabi/lib/armv6k/fpu\libsysbase.a(unlink.o)
                0x00141b24                _unlink_r
 .text          0x00141b80       0x74 c:/devkitpro/devkitarm/bin/../lib/gcc/arm-none-eabi/4.9.2/../../../../arm-none-eabi/lib/armv6k/fpu\libsysbase.a(write.o)
                0x00141b80                _write_r
 .text          0x00141bf4       0x20 c:/devkitpro/devkitarm/bin/../lib/gcc/arm-none-eabi/4.9.2/../../../../arm-none-eabi/lib/armv6k/fpu\libsysbase.a(_exit.o)
                0x00141bf4                _exit
 .text          0x00141c14        0x0 c:/devkitpro/devkitarm/bin/../lib/gcc/arm-none-eabi/4.9.2/../../../../arm-none-eabi/lib/armv6k/fpu\libsysbase.a(malloc_vars.o)
 .text          0x00141c14      0x3a4 c:/devkitpro/devkitarm/bin/../lib/gcc/arm-none-eabi/4.9.2/../../../../arm-none-eabi/lib/armv6k/fpu\libsysbase.a(chdir.o)
                0x00141c14                _concatenate_path
                0x00141dd0                chdir
                0x00141f18                getcwd
 .text          0x00141fb8        0x8 c:/devkitpro/devkitarm/bin/../lib/gcc/arm-none-eabi/4.9.2/../../../../arm-none-eabi/lib/armv6k/fpu\libsysbase.a(flock.o)
                0x00141fb8                __flockfile
                0x00141fbc                __funlockfile
 .text          0x00141fc0      0x108 c:/devkitpro/devkitarm/bin/../lib/gcc/arm-none-eabi/4.9.2/../../../../arm-none-eabi/lib/armv6k/fpu\libsysbase.a(syscall_support.o)
                0x00141fc0                __libc_lock_init
                0x00141fd8                __libc_lock_acquire
                0x00141ff0                __libc_lock_try_acquire
                0x00142014                __libc_lock_release
                0x0014202c                __libc_lock_close
                0x00142044                __libc_lock_init_recursive
                0x0014205c                __libc_lock_acquire_recursive
                0x00142074                __libc_lock_try_acquire_recursive
                0x00142098                __libc_lock_release_recursive
                0x001420b0                __libc_lock_close_recursive
 .text          0x001420c8      0x254 c:/devkitpro/devkitarm/bin/../lib/gcc/arm-none-eabi/4.9.2/../../../../arm-none-eabi/lib/armv6k/fpu\libsysbase.a(handle_manager.o)
                0x001420c8                __free_handle
                0x0014210c                __release_handle
                0x00142138                __alloc_handle
                0x001421a0                __get_handle
                0x001421bc                dup
                0x00142248                dup2
 .text          0x0014231c       0x28 c:/devkitpro/devkitarm/bin/../lib/gcc/arm-none-eabi/4.9.2/../../../../arm-none-eabi/lib/armv6k/fpu\libsysbase.a(getreent.o)
                0x0014231c                __getreent
 .text          0x00142344       0x3c c:/devkitpro/devkitarm/bin/../lib/gcc/arm-none-eabi/4.9.2/armv6k/fpu\libgcc.a(_aeabi_uldivmod.o)
                0x00142344                __aeabi_uldivmod
 .text          0x00142380       0x78 c:/devkitpro/devkitarm/bin/../lib/gcc/arm-none-eabi/4.9.2/armv6k/fpu\libgcc.a(bpabi.o)
                0x00142380                __gnu_ldivmod_helper
                0x001423bc                __gnu_uldivmod_helper
 .text          0x001423f8      0x180 c:/devkitpro/devkitarm/bin/../lib/gcc/arm-none-eabi/4.9.2/armv6k/fpu\libgcc.a(_divdi3.o)
                0x001423f8                __divdi3
 .text          0x00142578      0x124 c:/devkitpro/devkitarm/bin/../lib/gcc/arm-none-eabi/4.9.2/armv6k/fpu\libgcc.a(_udivdi3.o)
                0x00142578                __udivdi3
 .text          0x0014269c        0x0 c:/devkitpro/devkitarm/bin/../lib/gcc/arm-none-eabi/4.9.2/../../../../arm-none-eabi/lib/armv6k/fpu\libg.a(lib_a-strnlen.o)
 .text          0x0014269c        0x0 c:/devkitpro/devkitarm/bin/../lib/gcc/arm-none-eabi/4.9.2/../../../../arm-none-eabi/lib/armv6k/fpu\libg.a(lib_a-strrchr.o)
 .text          0x0014269c        0x0 c:/devkitpro/devkitarm/bin/../lib/gcc/arm-none-eabi/4.9.2/armv6k/fpu/crtend.o
 .text          0x0014269c        0x0 c:/devkitpro/devkitarm/bin/../lib/gcc/arm-none-eabi/4.9.2/armv6k/fpu/crtn.o
 *(.text.*)
 .text.startup  0x0014269c       0x44 main.o
                0x0014269c                main
 .text.unlikely
                0x001426e0      0x108 c:/devkitPro/portlibs/armv6k/lib\libpng.a(png.o)
 .text.cosf     0x001427e8       0xa8 c:/devkitpro/devkitarm/bin/../lib/gcc/arm-none-eabi/4.9.2/../../../../arm-none-eabi/lib/armv6k/fpu\libm.a(lib_a-sf_cos.o)
                0x001427e8                cosf
 .text.floor    0x00142890      0x180 c:/devkitpro/devkitarm/bin/../lib/gcc/arm-none-eabi/4.9.2/../../../../arm-none-eabi/lib/armv6k/fpu\libm.a(lib_a-s_floor.o)
                0x00142890                floor
 .text.frexp    0x00142a10       0x98 c:/devkitpro/devkitarm/bin/../lib/gcc/arm-none-eabi/4.9.2/../../../../arm-none-eabi/lib/armv6k/fpu\libm.a(lib_a-s_frexp.o)
                0x00142a10                frexp
 .text.sinf     0x00142aa8       0xb0 c:/devkitpro/devkitarm/bin/../lib/gcc/arm-none-eabi/4.9.2/../../../../arm-none-eabi/lib/armv6k/fpu\libm.a(lib_a-sf_sin.o)
                0x00142aa8                sinf
 .text.modf     0x00142b58       0xd4 c:/devkitpro/devkitarm/bin/../lib/gcc/arm-none-eabi/4.9.2/../../../../arm-none-eabi/lib/armv6k/fpu\libm.a(lib_a-s_modf.o)
                0x00142b58                modf
 *fill*         0x00142c2c        0x4 
 .text.pow      0x00142c30      0x3c0 c:/devkitpro/devkitarm/bin/../lib/gcc/arm-none-eabi/4.9.2/../../../../arm-none-eabi/lib/armv6k/fpu\libm.a(lib_a-w_pow.o)
                0x00142c30                pow
 .text.__ieee754_rem_pio2f
                0x00142ff0      0x2e0 c:/devkitpro/devkitarm/bin/../lib/gcc/arm-none-eabi/4.9.2/../../../../arm-none-eabi/lib/armv6k/fpu\libm.a(lib_a-ef_rem_pio2.o)
                0x00142ff0                __ieee754_rem_pio2f
 .text.__ieee754_pow
                0x001432d0      0x880 c:/devkitpro/devkitarm/bin/../lib/gcc/arm-none-eabi/4.9.2/../../../../arm-none-eabi/lib/armv6k/fpu\libm.a(lib_a-e_pow.o)
                0x001432d0                __ieee754_pow
 .text.__ieee754_sqrt
                0x00143b50      0x200 c:/devkitpro/devkitarm/bin/../lib/gcc/arm-none-eabi/4.9.2/../../../../arm-none-eabi/lib/armv6k/fpu\libm.a(lib_a-e_sqrt.o)
                0x00143b50                __ieee754_sqrt
 .text.__kernel_cosf
                0x00143d50      0x124 c:/devkitpro/devkitarm/bin/../lib/gcc/arm-none-eabi/4.9.2/../../../../arm-none-eabi/lib/armv6k/fpu\libm.a(lib_a-kf_cos.o)
                0x00143d50                __kernel_cosf
 .text.__kernel_rem_pio2f
                0x00143e74      0x838 c:/devkitpro/devkitarm/bin/../lib/gcc/arm-none-eabi/4.9.2/../../../../arm-none-eabi/lib/armv6k/fpu\libm.a(lib_a-kf_rem_pio2.o)
                0x00143e74                __kernel_rem_pio2f
 .text.__kernel_sinf
                0x001446ac       0xa0 c:/devkitpro/devkitarm/bin/../lib/gcc/arm-none-eabi/4.9.2/../../../../arm-none-eabi/lib/armv6k/fpu\libm.a(lib_a-kf_sin.o)
                0x001446ac                __kernel_sinf
 .text.fabs     0x0014474c       0x10 c:/devkitpro/devkitarm/bin/../lib/gcc/arm-none-eabi/4.9.2/../../../../arm-none-eabi/lib/armv6k/fpu\libm.a(lib_a-s_fabs.o)
                0x0014474c                fabs
 .text.fabsf    0x0014475c       0x10 c:/devkitpro/devkitarm/bin/../lib/gcc/arm-none-eabi/4.9.2/../../../../arm-none-eabi/lib/armv6k/fpu\libm.a(lib_a-sf_fabs.o)
                0x0014475c                fabsf
 .text.floorf   0x0014476c       0xb8 c:/devkitpro/devkitarm/bin/../lib/gcc/arm-none-eabi/4.9.2/../../../../arm-none-eabi/lib/armv6k/fpu\libm.a(lib_a-sf_floor.o)
                0x0014476c                floorf
 .text.finite   0x00144824       0x14 c:/devkitpro/devkitarm/bin/../lib/gcc/arm-none-eabi/4.9.2/../../../../arm-none-eabi/lib/armv6k/fpu\libm.a(lib_a-s_finite.o)
                0x00144824                finite
 .text.__fpclassifyd
                0x00144838       0x74 c:/devkitpro/devkitarm/bin/../lib/gcc/arm-none-eabi/4.9.2/../../../../arm-none-eabi/lib/armv6k/fpu\libm.a(lib_a-s_fpclassify.o)
                0x00144838                __fpclassifyd
 .text.scalbnf  0x001448ac      0x118 c:/devkitpro/devkitarm/bin/../lib/gcc/arm-none-eabi/4.9.2/../../../../arm-none-eabi/lib/armv6k/fpu\libm.a(lib_a-sf_scalbn.o)
                0x001448ac                scalbnf
 .text.matherr  0x001449c4        0x8 c:/devkitpro/devkitarm/bin/../lib/gcc/arm-none-eabi/4.9.2/../../../../arm-none-eabi/lib/armv6k/fpu\libm.a(lib_a-s_matherr.o)
                0x001449c4                matherr
 *fill*         0x001449cc        0x4 
 .text.nan      0x001449d0       0x10 c:/devkitpro/devkitarm/bin/../lib/gcc/arm-none-eabi/4.9.2/../../../../arm-none-eabi/lib/armv6k/fpu\libm.a(lib_a-s_nan.o)
                0x001449d0                nan
 .text.rint     0x001449e0      0x170 c:/devkitpro/devkitarm/bin/../lib/gcc/arm-none-eabi/4.9.2/../../../../arm-none-eabi/lib/armv6k/fpu\libm.a(lib_a-s_rint.o)
                0x001449e0                rint
 .text.scalbn   0x00144b50      0x198 c:/devkitpro/devkitarm/bin/../lib/gcc/arm-none-eabi/4.9.2/../../../../arm-none-eabi/lib/armv6k/fpu\libm.a(lib_a-s_scalbn.o)
                0x00144b50                scalbn
 .text.copysign
                0x00144ce8       0x1c c:/devkitpro/devkitarm/bin/../lib/gcc/arm-none-eabi/4.9.2/../../../../arm-none-eabi/lib/armv6k/fpu\libm.a(lib_a-s_copysign.o)
                0x00144ce8                copysign
 .text.copysignf
                0x00144d04       0x1c c:/devkitpro/devkitarm/bin/../lib/gcc/arm-none-eabi/4.9.2/../../../../arm-none-eabi/lib/armv6k/fpu\libm.a(lib_a-sf_copysign.o)
                0x00144d04                copysignf
 .text.abort    0x00144d20       0x14 c:/devkitpro/devkitarm/bin/../lib/gcc/arm-none-eabi/4.9.2/../../../../arm-none-eabi/lib/armv6k/fpu\libg.a(lib_a-abort.o)
                0x00144d20                abort
 .text.atof     0x00144d34        0x8 c:/devkitpro/devkitarm/bin/../lib/gcc/arm-none-eabi/4.9.2/../../../../arm-none-eabi/lib/armv6k/fpu\libg.a(lib_a-atof.o)
                0x00144d34                atof
 .text.bsearch  0x00144d3c       0x78 c:/devkitpro/devkitarm/bin/../lib/gcc/arm-none-eabi/4.9.2/../../../../arm-none-eabi/lib/armv6k/fpu\libg.a(lib_a-bsearch.o)
                0x00144d3c                bsearch
 .text.__errno  0x00144db4        0xc c:/devkitpro/devkitarm/bin/../lib/gcc/arm-none-eabi/4.9.2/../../../../arm-none-eabi/lib/armv6k/fpu\libg.a(lib_a-errno.o)
                0x00144db4                __errno
 .text.exit     0x00144dc0       0x34 c:/devkitpro/devkitarm/bin/../lib/gcc/arm-none-eabi/4.9.2/../../../../arm-none-eabi/lib/armv6k/fpu\libg.a(lib_a-exit.o)
                0x00144dc0                exit
 .text._fclose_r
                0x00144df4      0x118 c:/devkitpro/devkitarm/bin/../lib/gcc/arm-none-eabi/4.9.2/../../../../arm-none-eabi/lib/armv6k/fpu\libg.a(lib_a-fclose.o)
                0x00144df4                _fclose_r
 .text.fclose   0x00144f0c       0x18 c:/devkitpro/devkitarm/bin/../lib/gcc/arm-none-eabi/4.9.2/../../../../arm-none-eabi/lib/armv6k/fpu\libg.a(lib_a-fclose.o)
                0x00144f0c                fclose
 .text.__sflush_r
                0x00144f24      0x238 c:/devkitpro/devkitarm/bin/../lib/gcc/arm-none-eabi/4.9.2/../../../../arm-none-eabi/lib/armv6k/fpu\libg.a(lib_a-fflush.o)
                0x00144f24                __sflush_r
 .text._fflush_r
                0x0014515c       0x98 c:/devkitpro/devkitarm/bin/../lib/gcc/arm-none-eabi/4.9.2/../../../../arm-none-eabi/lib/armv6k/fpu\libg.a(lib_a-fflush.o)
                0x0014515c                _fflush_r
 .text.fflush   0x001451f4       0x38 c:/devkitpro/devkitarm/bin/../lib/gcc/arm-none-eabi/4.9.2/../../../../arm-none-eabi/lib/armv6k/fpu\libg.a(lib_a-fflush.o)
                0x001451f4                fflush
 .text._cleanup_r
                0x0014522c        0xc c:/devkitpro/devkitarm/bin/../lib/gcc/arm-none-eabi/4.9.2/../../../../arm-none-eabi/lib/armv6k/fpu\libg.a(lib_a-findfp.o)
                0x0014522c                _cleanup_r
 .text.__fp_lock
                0x00145238       0x1c c:/devkitpro/devkitarm/bin/../lib/gcc/arm-none-eabi/4.9.2/../../../../arm-none-eabi/lib/armv6k/fpu\libg.a(lib_a-findfp.o)
 .text.__fp_unlock
                0x00145254       0x1c c:/devkitpro/devkitarm/bin/../lib/gcc/arm-none-eabi/4.9.2/../../../../arm-none-eabi/lib/armv6k/fpu\libg.a(lib_a-findfp.o)
 .text.__sinit.part.1
                0x00145270      0x15c c:/devkitpro/devkitarm/bin/../lib/gcc/arm-none-eabi/4.9.2/../../../../arm-none-eabi/lib/armv6k/fpu\libg.a(lib_a-findfp.o)
 .text.__sfmoreglue
                0x001453cc       0x48 c:/devkitpro/devkitarm/bin/../lib/gcc/arm-none-eabi/4.9.2/../../../../arm-none-eabi/lib/armv6k/fpu\libg.a(lib_a-findfp.o)
                0x001453cc                __sfmoreglue
 .text.__sfp    0x00145414       0xe8 c:/devkitpro/devkitarm/bin/../lib/gcc/arm-none-eabi/4.9.2/../../../../arm-none-eabi/lib/armv6k/fpu\libg.a(lib_a-findfp.o)
                0x00145414                __sfp
 .text._cleanup
                0x001454fc       0x18 c:/devkitpro/devkitarm/bin/../lib/gcc/arm-none-eabi/4.9.2/../../../../arm-none-eabi/lib/armv6k/fpu\libg.a(lib_a-findfp.o)
                0x001454fc                _cleanup
 .text.__sinit  0x00145514       0x10 c:/devkitpro/devkitarm/bin/../lib/gcc/arm-none-eabi/4.9.2/../../../../arm-none-eabi/lib/armv6k/fpu\libg.a(lib_a-findfp.o)
                0x00145514                __sinit
 .text.__sfp_lock_acquire
                0x00145524        0x4 c:/devkitpro/devkitarm/bin/../lib/gcc/arm-none-eabi/4.9.2/../../../../arm-none-eabi/lib/armv6k/fpu\libg.a(lib_a-findfp.o)
                0x00145524                __sfp_lock_acquire
 .text.__sfp_lock_release
                0x00145528        0x4 c:/devkitpro/devkitarm/bin/../lib/gcc/arm-none-eabi/4.9.2/../../../../arm-none-eabi/lib/armv6k/fpu\libg.a(lib_a-findfp.o)
                0x00145528                __sfp_lock_release
 .text.__sinit_lock_acquire
                0x0014552c        0x4 c:/devkitpro/devkitarm/bin/../lib/gcc/arm-none-eabi/4.9.2/../../../../arm-none-eabi/lib/armv6k/fpu\libg.a(lib_a-findfp.o)
                0x0014552c                __sinit_lock_acquire
 .text.__sinit_lock_release
                0x00145530        0x4 c:/devkitpro/devkitarm/bin/../lib/gcc/arm-none-eabi/4.9.2/../../../../arm-none-eabi/lib/armv6k/fpu\libg.a(lib_a-findfp.o)
                0x00145530                __sinit_lock_release
 .text.__fp_lock_all
                0x00145534       0x18 c:/devkitpro/devkitarm/bin/../lib/gcc/arm-none-eabi/4.9.2/../../../../arm-none-eabi/lib/armv6k/fpu\libg.a(lib_a-findfp.o)
                0x00145534                __fp_lock_all
 .text.__fp_unlock_all
                0x0014554c       0x18 c:/devkitpro/devkitarm/bin/../lib/gcc/arm-none-eabi/4.9.2/../../../../arm-none-eabi/lib/armv6k/fpu\libg.a(lib_a-findfp.o)
                0x0014554c                __fp_unlock_all
 .text.__libc_fini_array
                0x00145564       0x40 c:/devkitpro/devkitarm/bin/../lib/gcc/arm-none-eabi/4.9.2/../../../../arm-none-eabi/lib/armv6k/fpu\libg.a(lib_a-fini.o)
                0x00145564                __libc_fini_array
 .text._fopen_r
                0x001455a4      0x130 c:/devkitpro/devkitarm/bin/../lib/gcc/arm-none-eabi/4.9.2/../../../../arm-none-eabi/lib/armv6k/fpu\libg.a(lib_a-fopen.o)
                0x001455a4                _fopen_r
 .text.fopen    0x001456d4       0x20 c:/devkitpro/devkitarm/bin/../lib/gcc/arm-none-eabi/4.9.2/../../../../arm-none-eabi/lib/armv6k/fpu\libg.a(lib_a-fopen.o)
                0x001456d4                fopen
 .text._fprintf_r
                0x001456f4       0x30 c:/devkitpro/devkitarm/bin/../lib/gcc/arm-none-eabi/4.9.2/../../../../arm-none-eabi/lib/armv6k/fpu\libg.a(lib_a-fprintf.o)
                0x001456f4                _fprintf_r
 .text.fprintf  0x00145724       0x3c c:/devkitpro/devkitarm/bin/../lib/gcc/arm-none-eabi/4.9.2/../../../../arm-none-eabi/lib/armv6k/fpu\libg.a(lib_a-fprintf.o)
                0x00145724                fprintf
 .text._fputc_r
                0x00145760       0xa4 c:/devkitpro/devkitarm/bin/../lib/gcc/arm-none-eabi/4.9.2/../../../../arm-none-eabi/lib/armv6k/fpu\libg.a(lib_a-fputc.o)
                0x00145760                _fputc_r
 .text.fputc    0x00145804       0x94 c:/devkitpro/devkitarm/bin/../lib/gcc/arm-none-eabi/4.9.2/../../../../arm-none-eabi/lib/armv6k/fpu\libg.a(lib_a-fputc.o)
                0x00145804                fputc
 .text._fread_r
                0x00145898      0x2f0 c:/devkitpro/devkitarm/bin/../lib/gcc/arm-none-eabi/4.9.2/../../../../arm-none-eabi/lib/armv6k/fpu\libg.a(lib_a-fread.o)
                0x00145898                _fread_r
 .text.fread    0x00145b88       0x38 c:/devkitpro/devkitarm/bin/../lib/gcc/arm-none-eabi/4.9.2/../../../../arm-none-eabi/lib/armv6k/fpu\libg.a(lib_a-fread.o)
                0x00145b88                fread
 .text._malloc_trim_r
                0x00145bc0       0xf8 c:/devkitpro/devkitarm/bin/../lib/gcc/arm-none-eabi/4.9.2/../../../../arm-none-eabi/lib/armv6k/fpu\libg.a(lib_a-freer.o)
                0x00145bc0                _malloc_trim_r
 .text._free_r  0x00145cb8      0x2b4 c:/devkitpro/devkitarm/bin/../lib/gcc/arm-none-eabi/4.9.2/../../../../arm-none-eabi/lib/armv6k/fpu\libg.a(lib_a-freer.o)
                0x00145cb8                _free_r
 .text._fseek_r
                0x00145f6c        0x4 c:/devkitpro/devkitarm/bin/../lib/gcc/arm-none-eabi/4.9.2/../../../../arm-none-eabi/lib/armv6k/fpu\libg.a(lib_a-fseek.o)
                0x00145f6c                _fseek_r
 .text.fseek    0x00145f70       0x28 c:/devkitpro/devkitarm/bin/../lib/gcc/arm-none-eabi/4.9.2/../../../../arm-none-eabi/lib/armv6k/fpu\libg.a(lib_a-fseek.o)
                0x00145f70                fseek
 .text._fseeko_r
                0x00145f98      0x4f8 c:/devkitpro/devkitarm/bin/../lib/gcc/arm-none-eabi/4.9.2/../../../../arm-none-eabi/lib/armv6k/fpu\libg.a(lib_a-fseeko.o)
                0x00145f98                _fseeko_r
 .text.fseeko   0x00146490       0x28 c:/devkitpro/devkitarm/bin/../lib/gcc/arm-none-eabi/4.9.2/../../../../arm-none-eabi/lib/armv6k/fpu\libg.a(lib_a-fseeko.o)
                0x00146490                fseeko
 .text._fwalk   0x001464b8       0x78 c:/devkitpro/devkitarm/bin/../lib/gcc/arm-none-eabi/4.9.2/../../../../arm-none-eabi/lib/armv6k/fpu\libg.a(lib_a-fwalk.o)
                0x001464b8                _fwalk
 .text._fwalk_reent
                0x00146530       0x80 c:/devkitpro/devkitarm/bin/../lib/gcc/arm-none-eabi/4.9.2/../../../../arm-none-eabi/lib/armv6k/fpu\libg.a(lib_a-fwalk.o)
                0x00146530                _fwalk_reent
 .text._fwrite_r
                0x001465b0      0x11c c:/devkitpro/devkitarm/bin/../lib/gcc/arm-none-eabi/4.9.2/../../../../arm-none-eabi/lib/armv6k/fpu\libg.a(lib_a-fwrite.o)
                0x001465b0                _fwrite_r
 .text.fwrite   0x001466cc       0x38 c:/devkitpro/devkitarm/bin/../lib/gcc/arm-none-eabi/4.9.2/../../../../arm-none-eabi/lib/armv6k/fpu\libg.a(lib_a-fwrite.o)
                0x001466cc                fwrite
 .text.gmtime   0x00146704       0x1c c:/devkitpro/devkitarm/bin/../lib/gcc/arm-none-eabi/4.9.2/../../../../arm-none-eabi/lib/armv6k/fpu\libg.a(lib_a-gmtime.o)
                0x00146704                gmtime
 .text.gmtime_r
                0x00146720      0x20c c:/devkitpro/devkitarm/bin/../lib/gcc/arm-none-eabi/4.9.2/../../../../arm-none-eabi/lib/armv6k/fpu\libg.a(lib_a-gmtime_r.o)
                0x00146720                gmtime_r
 .text.__libc_init_array
                0x0014692c       0x78 c:/devkitpro/devkitarm/bin/../lib/gcc/arm-none-eabi/4.9.2/../../../../arm-none-eabi/lib/armv6k/fpu\libg.a(lib_a-init.o)
                0x0014692c                __libc_init_array
 .text.__smakebuf_r
                0x001469a4      0x160 c:/devkitpro/devkitarm/bin/../lib/gcc/arm-none-eabi/4.9.2/../../../../arm-none-eabi/lib/armv6k/fpu\libg.a(lib_a-makebuf.o)
                0x001469a4                __smakebuf_r
 .text.malloc   0x00146b04       0x18 c:/devkitpro/devkitarm/bin/../lib/gcc/arm-none-eabi/4.9.2/../../../../arm-none-eabi/lib/armv6k/fpu\libg.a(lib_a-malloc.o)
                0x00146b04                malloc
 .text.free     0x00146b1c       0x18 c:/devkitpro/devkitarm/bin/../lib/gcc/arm-none-eabi/4.9.2/../../../../arm-none-eabi/lib/armv6k/fpu\libg.a(lib_a-malloc.o)
                0x00146b1c                free
 .text._malloc_r
                0x00146b34      0x740 c:/devkitpro/devkitarm/bin/../lib/gcc/arm-none-eabi/4.9.2/../../../../arm-none-eabi/lib/armv6k/fpu\libg.a(lib_a-mallocr.o)
                0x00146b34                _malloc_r
 .text.memcmp   0x00147274       0xa8 c:/devkitpro/devkitarm/bin/../lib/gcc/arm-none-eabi/4.9.2/../../../../arm-none-eabi/lib/armv6k/fpu\libg.a(lib_a-memcmp.o)
                0x00147274                memcmp
 .text.memcpy   0x0014731c       0xf4 c:/devkitpro/devkitarm/bin/../lib/gcc/arm-none-eabi/4.9.2/../../../../arm-none-eabi/lib/armv6k/fpu\libg.a(lib_a-memcpy.o)
                0x0014731c                memcpy
 .text.memset   0x00147410       0xf0 c:/devkitpro/devkitarm/bin/../lib/gcc/arm-none-eabi/4.9.2/../../../../arm-none-eabi/lib/armv6k/fpu\libg.a(lib_a-memset.o)
                0x00147410                memset
 .text.__malloc_lock
                0x00147500        0x4 c:/devkitpro/devkitarm/bin/../lib/gcc/arm-none-eabi/4.9.2/../../../../arm-none-eabi/lib/armv6k/fpu\libg.a(lib_a-mlock.o)
                0x00147500                __malloc_lock
 .text.__malloc_unlock
                0x00147504        0x4 c:/devkitpro/devkitarm/bin/../lib/gcc/arm-none-eabi/4.9.2/../../../../arm-none-eabi/lib/armv6k/fpu\libg.a(lib_a-mlock.o)
                0x00147504                __malloc_unlock
 .text._printf_r
                0x00147508       0x34 c:/devkitpro/devkitarm/bin/../lib/gcc/arm-none-eabi/4.9.2/../../../../arm-none-eabi/lib/armv6k/fpu\libg.a(lib_a-printf.o)
                0x00147508                _printf_r
 .text.printf   0x0014753c       0x38 c:/devkitpro/devkitarm/bin/../lib/gcc/arm-none-eabi/4.9.2/../../../../arm-none-eabi/lib/armv6k/fpu\libg.a(lib_a-printf.o)
                0x0014753c                printf
 .text._putchar_r
                0x00147574        0x8 c:/devkitpro/devkitarm/bin/../lib/gcc/arm-none-eabi/4.9.2/../../../../arm-none-eabi/lib/armv6k/fpu\libg.a(lib_a-putchar.o)
                0x00147574                _putchar_r
 .text.putchar  0x0014757c       0x1c c:/devkitpro/devkitarm/bin/../lib/gcc/arm-none-eabi/4.9.2/../../../../arm-none-eabi/lib/armv6k/fpu\libg.a(lib_a-putchar.o)
                0x0014757c                putchar
 .text._putc_r  0x00147598       0xf8 c:/devkitpro/devkitarm/bin/../lib/gcc/arm-none-eabi/4.9.2/../../../../arm-none-eabi/lib/armv6k/fpu\libg.a(lib_a-putc.o)
                0x00147598                _putc_r
 .text.putc     0x00147690       0xfc c:/devkitpro/devkitarm/bin/../lib/gcc/arm-none-eabi/4.9.2/../../../../arm-none-eabi/lib/armv6k/fpu\libg.a(lib_a-putc.o)
                0x00147690                putc
 .text.srand    0x0014778c       0x1c c:/devkitpro/devkitarm/bin/../lib/gcc/arm-none-eabi/4.9.2/../../../../arm-none-eabi/lib/armv6k/fpu\libg.a(lib_a-rand.o)
                0x0014778c                srand
 .text.rand     0x001477a8       0x44 c:/devkitpro/devkitarm/bin/../lib/gcc/arm-none-eabi/4.9.2/../../../../arm-none-eabi/lib/armv6k/fpu\libg.a(lib_a-rand.o)
                0x001477a8                rand
 .text.realloc  0x001477ec       0x20 c:/devkitpro/devkitarm/bin/../lib/gcc/arm-none-eabi/4.9.2/../../../../arm-none-eabi/lib/armv6k/fpu\libg.a(lib_a-realloc.o)
                0x001477ec                realloc
 .text._realloc_r
                0x0014780c      0x564 c:/devkitpro/devkitarm/bin/../lib/gcc/arm-none-eabi/4.9.2/../../../../arm-none-eabi/lib/armv6k/fpu\libg.a(lib_a-reallocr.o)
                0x0014780c                _realloc_r
 .text.lflush   0x00147d70       0x1c c:/devkitpro/devkitarm/bin/../lib/gcc/arm-none-eabi/4.9.2/../../../../arm-none-eabi/lib/armv6k/fpu\libg.a(lib_a-refill.o)
 .text.__srefill_r
                0x00147d8c      0x1d8 c:/devkitpro/devkitarm/bin/../lib/gcc/arm-none-eabi/4.9.2/../../../../arm-none-eabi/lib/armv6k/fpu\libg.a(lib_a-refill.o)
                0x00147d8c                __srefill_r
 .text._remove_r
                0x00147f64       0x1c c:/devkitpro/devkitarm/bin/../lib/gcc/arm-none-eabi/4.9.2/../../../../arm-none-eabi/lib/armv6k/fpu\libg.a(lib_a-remove.o)
                0x00147f64                _remove_r
 .text.remove   0x00147f80       0x28 c:/devkitpro/devkitarm/bin/../lib/gcc/arm-none-eabi/4.9.2/../../../../arm-none-eabi/lib/armv6k/fpu\libg.a(lib_a-remove.o)
                0x00147f80                remove
 .text._init_signal_r
                0x00147fa8       0x60 c:/devkitpro/devkitarm/bin/../lib/gcc/arm-none-eabi/4.9.2/../../../../arm-none-eabi/lib/armv6k/fpu\libg.a(lib_a-signal.o)
                0x00147fa8                _init_signal_r
 .text._signal_r
                0x00148008       0x5c c:/devkitpro/devkitarm/bin/../lib/gcc/arm-none-eabi/4.9.2/../../../../arm-none-eabi/lib/armv6k/fpu\libg.a(lib_a-signal.o)
                0x00148008                _signal_r
 .text._raise_r
                0x00148064       0x98 c:/devkitpro/devkitarm/bin/../lib/gcc/arm-none-eabi/4.9.2/../../../../arm-none-eabi/lib/armv6k/fpu\libg.a(lib_a-signal.o)
                0x00148064                _raise_r
 .text.__sigtramp_r
                0x001480fc       0x94 c:/devkitpro/devkitarm/bin/../lib/gcc/arm-none-eabi/4.9.2/../../../../arm-none-eabi/lib/armv6k/fpu\libg.a(lib_a-signal.o)
                0x001480fc                __sigtramp_r
 .text.raise    0x00148190       0x18 c:/devkitpro/devkitarm/bin/../lib/gcc/arm-none-eabi/4.9.2/../../../../arm-none-eabi/lib/armv6k/fpu\libg.a(lib_a-signal.o)
                0x00148190                raise
 .text.signal   0x001481a8       0x20 c:/devkitpro/devkitarm/bin/../lib/gcc/arm-none-eabi/4.9.2/../../../../arm-none-eabi/lib/armv6k/fpu\libg.a(lib_a-signal.o)
                0x001481a8                signal
 .text._init_signal
                0x001481c8       0x10 c:/devkitpro/devkitarm/bin/../lib/gcc/arm-none-eabi/4.9.2/../../../../arm-none-eabi/lib/armv6k/fpu\libg.a(lib_a-signal.o)
                0x001481c8                _init_signal
 .text.__sigtramp
                0x001481d8       0x18 c:/devkitpro/devkitarm/bin/../lib/gcc/arm-none-eabi/4.9.2/../../../../arm-none-eabi/lib/armv6k/fpu\libg.a(lib_a-signal.o)
                0x001481d8                __sigtramp
 .text.__sread  0x001481f0       0x30 c:/devkitpro/devkitarm/bin/../lib/gcc/arm-none-eabi/4.9.2/../../../../arm-none-eabi/lib/armv6k/fpu\libg.a(lib_a-stdio.o)
                0x001481f0                __sread
 .text.__seofread
                0x00148220        0x8 c:/devkitpro/devkitarm/bin/../lib/gcc/arm-none-eabi/4.9.2/../../../../arm-none-eabi/lib/armv6k/fpu\libg.a(lib_a-stdio.o)
                0x00148220                __seofread
 .text.__swrite
                0x00148228       0x54 c:/devkitpro/devkitarm/bin/../lib/gcc/arm-none-eabi/4.9.2/../../../../arm-none-eabi/lib/armv6k/fpu\libg.a(lib_a-stdio.o)
                0x00148228                __swrite
 .text.__sseek  0x0014827c       0x2c c:/devkitpro/devkitarm/bin/../lib/gcc/arm-none-eabi/4.9.2/../../../../arm-none-eabi/lib/armv6k/fpu\libg.a(lib_a-stdio.o)
                0x0014827c                __sseek
 .text.__sclose
                0x001482a8        0x8 c:/devkitpro/devkitarm/bin/../lib/gcc/arm-none-eabi/4.9.2/../../../../arm-none-eabi/lib/armv6k/fpu\libg.a(lib_a-stdio.o)
                0x001482a8                __sclose
 .text.strcpy   0x001482b0       0xf0 c:/devkitpro/devkitarm/bin/../lib/gcc/arm-none-eabi/4.9.2/../../../../arm-none-eabi/lib/armv6k/fpu\libg.a(lib_a-strcpy.o)
                0x001482b0                strcpy
 .text._strerror_r
                0x001483a0      0x63c c:/devkitpro/devkitarm/bin/../lib/gcc/arm-none-eabi/4.9.2/../../../../arm-none-eabi/lib/armv6k/fpu\libg.a(lib_a-strerror.o)
                0x001483a0                _strerror_r
 .text.strerror
                0x001489dc       0x20 c:/devkitpro/devkitarm/bin/../lib/gcc/arm-none-eabi/4.9.2/../../../../arm-none-eabi/lib/armv6k/fpu\libg.a(lib_a-strerror.o)
                0x001489dc                strerror
 .text.strlen   0x001489fc       0x5c c:/devkitpro/devkitarm/bin/../lib/gcc/arm-none-eabi/4.9.2/../../../../arm-none-eabi/lib/armv6k/fpu\libg.a(lib_a-strlen.o)
                0x001489fc                strlen
 .text.strncat  0x00148a58       0xa4 c:/devkitpro/devkitarm/bin/../lib/gcc/arm-none-eabi/4.9.2/../../../../arm-none-eabi/lib/armv6k/fpu\libg.a(lib_a-strncat.o)
                0x00148a58                strncat
 .text.strncpy  0x00148afc       0xe0 c:/devkitpro/devkitarm/bin/../lib/gcc/arm-none-eabi/4.9.2/../../../../arm-none-eabi/lib/armv6k/fpu\libg.a(lib_a-strncpy.o)
                0x00148afc                strncpy
 .text.unlikely.sulp
                0x00148bdc       0x58 c:/devkitpro/devkitarm/bin/../lib/gcc/arm-none-eabi/4.9.2/../../../../arm-none-eabi/lib/armv6k/fpu\libg.a(lib_a-strtod.o)
 *fill*         0x00148c34        0x4 
 .text._strtod_r
                0x00148c38     0x13e8 c:/devkitpro/devkitarm/bin/../lib/gcc/arm-none-eabi/4.9.2/../../../../arm-none-eabi/lib/armv6k/fpu\libg.a(lib_a-strtod.o)
                0x00148c38                _strtod_r
 .text.strtod   0x0014a020       0x20 c:/devkitpro/devkitarm/bin/../lib/gcc/arm-none-eabi/4.9.2/../../../../arm-none-eabi/lib/armv6k/fpu\libg.a(lib_a-strtod.o)
                0x0014a020                strtod
 .text.strtof   0x0014a040       0x48 c:/devkitpro/devkitarm/bin/../lib/gcc/arm-none-eabi/4.9.2/../../../../arm-none-eabi/lib/armv6k/fpu\libg.a(lib_a-strtod.o)
                0x0014a040                strtof
 .text.time     0x0014a088       0x40 c:/devkitpro/devkitarm/bin/../lib/gcc/arm-none-eabi/4.9.2/../../../../arm-none-eabi/lib/armv6k/fpu\libg.a(lib_a-time.o)
                0x0014a088                time
 .text._user_strerror
                0x0014a0c8        0x8 c:/devkitpro/devkitarm/bin/../lib/gcc/arm-none-eabi/4.9.2/../../../../arm-none-eabi/lib/armv6k/fpu\libg.a(lib_a-u_strerr.o)
                0x0014a0c8                _user_strerror
 .text.get_arg  0x0014a0d0      0x860 c:/devkitpro/devkitarm/bin/../lib/gcc/arm-none-eabi/4.9.2/../../../../arm-none-eabi/lib/armv6k/fpu\libg.a(lib_a-vfprintf.o)
 .text._vfprintf_r
                0x0014a930     0x4408 c:/devkitpro/devkitarm/bin/../lib/gcc/arm-none-eabi/4.9.2/../../../../arm-none-eabi/lib/armv6k/fpu\libg.a(lib_a-vfprintf.o)
                0x0014a930                _vfprintf_r
 .text.vfprintf
                0x0014ed38       0x28 c:/devkitpro/devkitarm/bin/../lib/gcc/arm-none-eabi/4.9.2/../../../../arm-none-eabi/lib/armv6k/fpu\libg.a(lib_a-vfprintf.o)
                0x0014ed38                vfprintf
 .text.__sbprintf
                0x0014ed60       0xa8 c:/devkitpro/devkitarm/bin/../lib/gcc/arm-none-eabi/4.9.2/../../../../arm-none-eabi/lib/armv6k/fpu\libg.a(lib_a-vfprintf.o)
 .text.__swbuf_r
                0x0014ee08      0x124 c:/devkitpro/devkitarm/bin/../lib/gcc/arm-none-eabi/4.9.2/../../../../arm-none-eabi/lib/armv6k/fpu\libg.a(lib_a-wbuf.o)
                0x0014ee08                __swbuf_r
 .text.__swbuf  0x0014ef2c       0x20 c:/devkitpro/devkitarm/bin/../lib/gcc/arm-none-eabi/4.9.2/../../../../arm-none-eabi/lib/armv6k/fpu\libg.a(lib_a-wbuf.o)
                0x0014ef2c                __swbuf
 .text._wcrtomb_r
                0x0014ef4c       0x8c c:/devkitpro/devkitarm/bin/../lib/gcc/arm-none-eabi/4.9.2/../../../../arm-none-eabi/lib/armv6k/fpu\libg.a(lib_a-wcrtomb.o)
                0x0014ef4c                _wcrtomb_r
 .text.wcrtomb  0x0014efd8       0x94 c:/devkitpro/devkitarm/bin/../lib/gcc/arm-none-eabi/4.9.2/../../../../arm-none-eabi/lib/armv6k/fpu\libg.a(lib_a-wcrtomb.o)
                0x0014efd8                wcrtomb
 .text._wcsrtombs_r
                0x0014f06c       0x20 c:/devkitpro/devkitarm/bin/../lib/gcc/arm-none-eabi/4.9.2/../../../../arm-none-eabi/lib/armv6k/fpu\libg.a(lib_a-wcsrtombs.o)
                0x0014f06c                _wcsrtombs_r
 .text.wcsrtombs
                0x0014f08c       0x3c c:/devkitpro/devkitarm/bin/../lib/gcc/arm-none-eabi/4.9.2/../../../../arm-none-eabi/lib/armv6k/fpu\libg.a(lib_a-wcsrtombs.o)
                0x0014f08c                wcsrtombs
 .text.__utf8_wctomb
                0x0014f0c8      0x114 c:/devkitpro/devkitarm/bin/../lib/gcc/arm-none-eabi/4.9.2/../../../../arm-none-eabi/lib/armv6k/fpu\libg.a(lib_a-wctomb_r.o)
                0x0014f0c8                __utf8_wctomb
 .text._wctomb_r
                0x0014f1dc       0x48 c:/devkitpro/devkitarm/bin/../lib/gcc/arm-none-eabi/4.9.2/../../../../arm-none-eabi/lib/armv6k/fpu\libg.a(lib_a-wctomb_r.o)
                0x0014f1dc                _wctomb_r
 .text.__ascii_wctomb
                0x0014f224       0x28 c:/devkitpro/devkitarm/bin/../lib/gcc/arm-none-eabi/4.9.2/../../../../arm-none-eabi/lib/armv6k/fpu\libg.a(lib_a-wctomb_r.o)
                0x0014f224                __ascii_wctomb
 .text.__sjis_wctomb
                0x0014f24c       0x84 c:/devkitpro/devkitarm/bin/../lib/gcc/arm-none-eabi/4.9.2/../../../../arm-none-eabi/lib/armv6k/fpu\libg.a(lib_a-wctomb_r.o)
                0x0014f24c                __sjis_wctomb
 .text.__eucjp_wctomb
                0x0014f2d0       0xc8 c:/devkitpro/devkitarm/bin/../lib/gcc/arm-none-eabi/4.9.2/../../../../arm-none-eabi/lib/armv6k/fpu\libg.a(lib_a-wctomb_r.o)
                0x0014f2d0                __eucjp_wctomb
 .text.__jis_wctomb
                0x0014f398       0xd4 c:/devkitpro/devkitarm/bin/../lib/gcc/arm-none-eabi/4.9.2/../../../../arm-none-eabi/lib/armv6k/fpu\libg.a(lib_a-wctomb_r.o)
                0x0014f398                __jis_wctomb
 .text.__swsetup_r
                0x0014f46c      0x14c c:/devkitpro/devkitarm/bin/../lib/gcc/arm-none-eabi/4.9.2/../../../../arm-none-eabi/lib/armv6k/fpu\libg.a(lib_a-wsetup.o)
                0x0014f46c                __swsetup_r
 .text.__call_exitprocs
                0x0014f5b8      0x15c c:/devkitpro/devkitarm/bin/../lib/gcc/arm-none-eabi/4.9.2/../../../../arm-none-eabi/lib/armv6k/fpu\libg.a(lib_a-__call_atexit.o)
                0x0014f5b8                __call_exitprocs
 .text.quorem   0x0014f714      0x1c0 c:/devkitpro/devkitarm/bin/../lib/gcc/arm-none-eabi/4.9.2/../../../../arm-none-eabi/lib/armv6k/fpu\libg.a(lib_a-dtoa.o)
 *fill*         0x0014f8d4        0x4 
 .text._dtoa_r  0x0014f8d8     0x12e0 c:/devkitpro/devkitarm/bin/../lib/gcc/arm-none-eabi/4.9.2/../../../../arm-none-eabi/lib/armv6k/fpu\libg.a(lib_a-dtoa.o)
                0x0014f8d8                _dtoa_r
 .text.__sflags
                0x00150bb8       0xb0 c:/devkitpro/devkitarm/bin/../lib/gcc/arm-none-eabi/4.9.2/../../../../arm-none-eabi/lib/armv6k/fpu\libg.a(lib_a-flags.o)
                0x00150bb8                __sflags
 .text.__sfvwrite_r
                0x00150c68      0x4c4 c:/devkitpro/devkitarm/bin/../lib/gcc/arm-none-eabi/4.9.2/../../../../arm-none-eabi/lib/armv6k/fpu\libg.a(lib_a-fvwrite.o)
                0x00150c68                __sfvwrite_r
 .text.rshift   0x0015112c       0xec c:/devkitpro/devkitarm/bin/../lib/gcc/arm-none-eabi/4.9.2/../../../../arm-none-eabi/lib/armv6k/fpu\libg.a(lib_a-gdtoa-gethex.o)
 .text.__gethex
                0x00151218      0x7e8 c:/devkitpro/devkitarm/bin/../lib/gcc/arm-none-eabi/4.9.2/../../../../arm-none-eabi/lib/armv6k/fpu\libg.a(lib_a-gdtoa-gethex.o)
                0x00151218                __gethex
 .text.__hexnan
                0x00151a00      0x260 c:/devkitpro/devkitarm/bin/../lib/gcc/arm-none-eabi/4.9.2/../../../../arm-none-eabi/lib/armv6k/fpu\libg.a(lib_a-gdtoa-hexnan.o)
                0x00151a00                __hexnan
 .text.__get_locale_env
                0x00151c60       0x8c c:/devkitpro/devkitarm/bin/../lib/gcc/arm-none-eabi/4.9.2/../../../../arm-none-eabi/lib/armv6k/fpu\libg.a(lib_a-locale.o)
 .text.loadlocale
                0x00151cec      0x8a4 c:/devkitpro/devkitarm/bin/../lib/gcc/arm-none-eabi/4.9.2/../../../../arm-none-eabi/lib/armv6k/fpu\libg.a(lib_a-locale.o)
 .text.currentlocale
                0x00152590       0x88 c:/devkitpro/devkitarm/bin/../lib/gcc/arm-none-eabi/4.9.2/../../../../arm-none-eabi/lib/armv6k/fpu\libg.a(lib_a-locale.o)
 .text._setlocale_r
                0x00152618      0x300 c:/devkitpro/devkitarm/bin/../lib/gcc/arm-none-eabi/4.9.2/../../../../arm-none-eabi/lib/armv6k/fpu\libg.a(lib_a-locale.o)
                0x00152618                _setlocale_r
 .text.__locale_charset
                0x00152918        0xc c:/devkitpro/devkitarm/bin/../lib/gcc/arm-none-eabi/4.9.2/../../../../arm-none-eabi/lib/armv6k/fpu\libg.a(lib_a-locale.o)
                0x00152918                __locale_charset
 .text.__locale_mb_cur_max
                0x00152924       0x10 c:/devkitpro/devkitarm/bin/../lib/gcc/arm-none-eabi/4.9.2/../../../../arm-none-eabi/lib/armv6k/fpu\libg.a(lib_a-locale.o)
                0x00152924                __locale_mb_cur_max
 .text.__locale_msgcharset
                0x00152934        0xc c:/devkitpro/devkitarm/bin/../lib/gcc/arm-none-eabi/4.9.2/../../../../arm-none-eabi/lib/armv6k/fpu\libg.a(lib_a-locale.o)
                0x00152934                __locale_msgcharset
 .text.__locale_cjk_lang
                0x00152940       0x10 c:/devkitpro/devkitarm/bin/../lib/gcc/arm-none-eabi/4.9.2/../../../../arm-none-eabi/lib/armv6k/fpu\libg.a(lib_a-locale.o)
                0x00152940                __locale_cjk_lang
 .text._localeconv_r
                0x00152950        0xc c:/devkitpro/devkitarm/bin/../lib/gcc/arm-none-eabi/4.9.2/../../../../arm-none-eabi/lib/armv6k/fpu\libg.a(lib_a-locale.o)
                0x00152950                _localeconv_r
 .text.setlocale
                0x0015295c       0x20 c:/devkitpro/devkitarm/bin/../lib/gcc/arm-none-eabi/4.9.2/../../../../arm-none-eabi/lib/armv6k/fpu\libg.a(lib_a-locale.o)
                0x0015295c                setlocale
 .text.localeconv
                0x0015297c       0x14 c:/devkitpro/devkitarm/bin/../lib/gcc/arm-none-eabi/4.9.2/../../../../arm-none-eabi/lib/armv6k/fpu\libg.a(lib_a-locale.o)
                0x0015297c                localeconv
 .text.__utf8_mbtowc
                0x00152990      0x2fc c:/devkitpro/devkitarm/bin/../lib/gcc/arm-none-eabi/4.9.2/../../../../arm-none-eabi/lib/armv6k/fpu\libg.a(lib_a-mbtowc_r.o)
                0x00152990                __utf8_mbtowc
 .text._mbtowc_r
                0x00152c8c       0x4c c:/devkitpro/devkitarm/bin/../lib/gcc/arm-none-eabi/4.9.2/../../../../arm-none-eabi/lib/armv6k/fpu\libg.a(lib_a-mbtowc_r.o)
                0x00152c8c                _mbtowc_r
 .text.__ascii_mbtowc
                0x00152cd8       0x4c c:/devkitpro/devkitarm/bin/../lib/gcc/arm-none-eabi/4.9.2/../../../../arm-none-eabi/lib/armv6k/fpu\libg.a(lib_a-mbtowc_r.o)
                0x00152cd8                __ascii_mbtowc
 .text.__sjis_mbtowc
                0x00152d24       0xd4 c:/devkitpro/devkitarm/bin/../lib/gcc/arm-none-eabi/4.9.2/../../../../arm-none-eabi/lib/armv6k/fpu\libg.a(lib_a-mbtowc_r.o)
                0x00152d24                __sjis_mbtowc
 .text.__eucjp_mbtowc
                0x00152df8      0x140 c:/devkitpro/devkitarm/bin/../lib/gcc/arm-none-eabi/4.9.2/../../../../arm-none-eabi/lib/armv6k/fpu\libg.a(lib_a-mbtowc_r.o)
                0x00152df8                __eucjp_mbtowc
 .text.__jis_mbtowc
                0x00152f38      0x1a8 c:/devkitpro/devkitarm/bin/../lib/gcc/arm-none-eabi/4.9.2/../../../../arm-none-eabi/lib/armv6k/fpu\libg.a(lib_a-mbtowc_r.o)
                0x00152f38                __jis_mbtowc
 .text.memchr   0x001530e0      0x120 c:/devkitpro/devkitarm/bin/../lib/gcc/arm-none-eabi/4.9.2/../../../../arm-none-eabi/lib/armv6k/fpu\libg.a(lib_a-memchr.o)
                0x001530e0                memchr
 .text.memmove  0x00153200      0x12c c:/devkitpro/devkitarm/bin/../lib/gcc/arm-none-eabi/4.9.2/../../../../arm-none-eabi/lib/armv6k/fpu\libg.a(lib_a-memmove.o)
                0x00153200                memmove
 .text._Balloc  0x0015332c       0x8c c:/devkitpro/devkitarm/bin/../lib/gcc/arm-none-eabi/4.9.2/../../../../arm-none-eabi/lib/armv6k/fpu\libg.a(lib_a-mprec.o)
                0x0015332c                _Balloc
 .text._Bfree   0x001533b8       0x1c c:/devkitpro/devkitarm/bin/../lib/gcc/arm-none-eabi/4.9.2/../../../../arm-none-eabi/lib/armv6k/fpu\libg.a(lib_a-mprec.o)
                0x001533b8                _Bfree
 .text.__multadd
                0x001533d4       0xd0 c:/devkitpro/devkitarm/bin/../lib/gcc/arm-none-eabi/4.9.2/../../../../arm-none-eabi/lib/armv6k/fpu\libg.a(lib_a-mprec.o)
                0x001533d4                __multadd
 .text.__s2b    0x001534a4       0xe4 c:/devkitpro/devkitarm/bin/../lib/gcc/arm-none-eabi/4.9.2/../../../../arm-none-eabi/lib/armv6k/fpu\libg.a(lib_a-mprec.o)
                0x001534a4                __s2b
 .text.__hi0bits
                0x00153588       0x5c c:/devkitpro/devkitarm/bin/../lib/gcc/arm-none-eabi/4.9.2/../../../../arm-none-eabi/lib/armv6k/fpu\libg.a(lib_a-mprec.o)
                0x00153588                __hi0bits
 .text.__lo0bits
                0x001535e4       0x98 c:/devkitpro/devkitarm/bin/../lib/gcc/arm-none-eabi/4.9.2/../../../../arm-none-eabi/lib/armv6k/fpu\libg.a(lib_a-mprec.o)
                0x001535e4                __lo0bits
 .text.__i2b    0x0015367c       0x20 c:/devkitpro/devkitarm/bin/../lib/gcc/arm-none-eabi/4.9.2/../../../../arm-none-eabi/lib/armv6k/fpu\libg.a(lib_a-mprec.o)
                0x0015367c                __i2b
 .text.__multiply
                0x0015369c      0x1dc c:/devkitpro/devkitarm/bin/../lib/gcc/arm-none-eabi/4.9.2/../../../../arm-none-eabi/lib/armv6k/fpu\libg.a(lib_a-mprec.o)
                0x0015369c                __multiply
 .text.__pow5mult
                0x00153878      0x100 c:/devkitpro/devkitarm/bin/../lib/gcc/arm-none-eabi/4.9.2/../../../../arm-none-eabi/lib/armv6k/fpu\libg.a(lib_a-mprec.o)
                0x00153878                __pow5mult
 .text.__lshift
                0x00153978       0xf4 c:/devkitpro/devkitarm/bin/../lib/gcc/arm-none-eabi/4.9.2/../../../../arm-none-eabi/lib/armv6k/fpu\libg.a(lib_a-mprec.o)
                0x00153978                __lshift
 .text.__mcmp   0x00153a6c       0x64 c:/devkitpro/devkitarm/bin/../lib/gcc/arm-none-eabi/4.9.2/../../../../arm-none-eabi/lib/armv6k/fpu\libg.a(lib_a-mprec.o)
                0x00153a6c                __mcmp
 .text.__mdiff  0x00153ad0      0x13c c:/devkitpro/devkitarm/bin/../lib/gcc/arm-none-eabi/4.9.2/../../../../arm-none-eabi/lib/armv6k/fpu\libg.a(lib_a-mprec.o)
                0x00153ad0                __mdiff
 .text.__ulp    0x00153c0c       0x74 c:/devkitpro/devkitarm/bin/../lib/gcc/arm-none-eabi/4.9.2/../../../../arm-none-eabi/lib/armv6k/fpu\libg.a(lib_a-mprec.o)
                0x00153c0c                __ulp
 .text.__b2d    0x00153c80       0xe4 c:/devkitpro/devkitarm/bin/../lib/gcc/arm-none-eabi/4.9.2/../../../../arm-none-eabi/lib/armv6k/fpu\libg.a(lib_a-mprec.o)
                0x00153c80                __b2d
 .text.__d2b    0x00153d64      0x104 c:/devkitpro/devkitarm/bin/../lib/gcc/arm-none-eabi/4.9.2/../../../../arm-none-eabi/lib/armv6k/fpu\libg.a(lib_a-mprec.o)
                0x00153d64                __d2b
 .text.__ratio  0x00153e68       0x7c c:/devkitpro/devkitarm/bin/../lib/gcc/arm-none-eabi/4.9.2/../../../../arm-none-eabi/lib/armv6k/fpu\libg.a(lib_a-mprec.o)
                0x00153e68                __ratio
 *fill*         0x00153ee4        0x4 
 .text._mprec_log10
                0x00153ee8       0x48 c:/devkitpro/devkitarm/bin/../lib/gcc/arm-none-eabi/4.9.2/../../../../arm-none-eabi/lib/armv6k/fpu\libg.a(lib_a-mprec.o)
                0x00153ee8                _mprec_log10
 .text.__copybits
                0x00153f30       0x6c c:/devkitpro/devkitarm/bin/../lib/gcc/arm-none-eabi/4.9.2/../../../../arm-none-eabi/lib/armv6k/fpu\libg.a(lib_a-mprec.o)
                0x00153f30                __copybits
 .text.__any_on
                0x00153f9c       0x80 c:/devkitpro/devkitarm/bin/../lib/gcc/arm-none-eabi/4.9.2/../../../../arm-none-eabi/lib/armv6k/fpu\libg.a(lib_a-mprec.o)
                0x00153f9c                __any_on
 .text.nanf     0x0015401c        0xc c:/devkitpro/devkitarm/bin/../lib/gcc/arm-none-eabi/4.9.2/../../../../arm-none-eabi/lib/armv6k/fpu\libg.a(lib_a-sf_nan.o)
                0x0015401c                nanf
 .text.strcasecmp
                0x00154028       0x68 c:/devkitpro/devkitarm/bin/../lib/gcc/arm-none-eabi/4.9.2/../../../../arm-none-eabi/lib/armv6k/fpu\libg.a(lib_a-strcasecmp.o)
                0x00154028                strcasecmp
 .text.strcat   0x00154090       0x80 c:/devkitpro/devkitarm/bin/../lib/gcc/arm-none-eabi/4.9.2/../../../../arm-none-eabi/lib/armv6k/fpu\libg.a(lib_a-strcat.o)
                0x00154090                strcat
 .text.strchr   0x00154110      0x16c c:/devkitpro/devkitarm/bin/../lib/gcc/arm-none-eabi/4.9.2/../../../../arm-none-eabi/lib/armv6k/fpu\libg.a(lib_a-strchr.o)
                0x00154110                strchr
 .text.strlcpy  0x0015427c       0x48 c:/devkitpro/devkitarm/bin/../lib/gcc/arm-none-eabi/4.9.2/../../../../arm-none-eabi/lib/armv6k/fpu\libg.a(lib_a-strlcpy.o)
                0x0015427c                strlcpy
 .text.strncasecmp
                0x001542c4       0x8c c:/devkitpro/devkitarm/bin/../lib/gcc/arm-none-eabi/4.9.2/../../../../arm-none-eabi/lib/armv6k/fpu\libg.a(lib_a-strncasecmp.o)
                0x001542c4                strncasecmp
 .text.strncmp  0x00154350      0x110 c:/devkitpro/devkitarm/bin/../lib/gcc/arm-none-eabi/4.9.2/../../../../arm-none-eabi/lib/armv6k/fpu\libg.a(lib_a-strncmp.o)
                0x00154350                strncmp
 .text._strtol_r
                0x00154460      0x1dc c:/devkitpro/devkitarm/bin/../lib/gcc/arm-none-eabi/4.9.2/../../../../arm-none-eabi/lib/armv6k/fpu\libg.a(lib_a-strtol.o)
                0x00154460                _strtol_r
 .text.strtol   0x0015463c       0x28 c:/devkitpro/devkitarm/bin/../lib/gcc/arm-none-eabi/4.9.2/../../../../arm-none-eabi/lib/armv6k/fpu\libg.a(lib_a-strtol.o)
                0x0015463c                strtol
 .text.get_arg  0x00154664      0x860 c:/devkitpro/devkitarm/bin/../lib/gcc/arm-none-eabi/4.9.2/../../../../arm-none-eabi/lib/armv6k/fpu\libg.a(lib_a-svfiprintf.o)
 .text.__ssprint_r
                0x00154ec4      0x1a8 c:/devkitpro/devkitarm/bin/../lib/gcc/arm-none-eabi/4.9.2/../../../../arm-none-eabi/lib/armv6k/fpu\libg.a(lib_a-svfiprintf.o)
                0x00154ec4                __ssprint_r
 .text._svfiprintf_r
                0x0015506c     0x2fdc c:/devkitpro/devkitarm/bin/../lib/gcc/arm-none-eabi/4.9.2/../../../../arm-none-eabi/lib/armv6k/fpu\libg.a(lib_a-svfiprintf.o)
                0x0015506c                _svfiprintf_r
 .text.get_arg  0x00158048      0x860 c:/devkitpro/devkitarm/bin/../lib/gcc/arm-none-eabi/4.9.2/../../../../arm-none-eabi/lib/armv6k/fpu\libg.a(lib_a-vfiprintf.o)
 .text.__sprint_r.part.0
                0x001588a8       0xa4 c:/devkitpro/devkitarm/bin/../lib/gcc/arm-none-eabi/4.9.2/../../../../arm-none-eabi/lib/armv6k/fpu\libg.a(lib_a-vfiprintf.o)
 .text.__sprint_r
                0x0015894c       0x1c c:/devkitpro/devkitarm/bin/../lib/gcc/arm-none-eabi/4.9.2/../../../../arm-none-eabi/lib/armv6k/fpu\libg.a(lib_a-vfiprintf.o)
                0x0015894c                __sprint_r
 .text._vfiprintf_r
                0x00158968     0x3114 c:/devkitpro/devkitarm/bin/../lib/gcc/arm-none-eabi/4.9.2/../../../../arm-none-eabi/lib/armv6k/fpu\libg.a(lib_a-vfiprintf.o)
                0x00158968                _vfiprintf_r
 .text.vfiprintf
                0x0015ba7c       0x28 c:/devkitpro/devkitarm/bin/../lib/gcc/arm-none-eabi/4.9.2/../../../../arm-none-eabi/lib/armv6k/fpu\libg.a(lib_a-vfiprintf.o)
                0x0015ba7c                vfiprintf
 .text.__sbprintf
                0x0015baa4       0xa8 c:/devkitpro/devkitarm/bin/../lib/gcc/arm-none-eabi/4.9.2/../../../../arm-none-eabi/lib/armv6k/fpu\libg.a(lib_a-vfiprintf.o)
 .text._wcsnrtombs_r
                0x0015bb4c      0x184 c:/devkitpro/devkitarm/bin/../lib/gcc/arm-none-eabi/4.9.2/../../../../arm-none-eabi/lib/armv6k/fpu\libg.a(lib_a-wcsnrtombs.o)
                0x0015bb4c                _wcsnrtombs_r
 .text.wcsnrtombs
                0x0015bcd0       0x40 c:/devkitpro/devkitarm/bin/../lib/gcc/arm-none-eabi/4.9.2/../../../../arm-none-eabi/lib/armv6k/fpu\libg.a(lib_a-wcsnrtombs.o)
                0x0015bcd0                wcsnrtombs
 .text._calloc_r
                0x0015bd10       0x94 c:/devkitpro/devkitarm/bin/../lib/gcc/arm-none-eabi/4.9.2/../../../../arm-none-eabi/lib/armv6k/fpu\libg.a(lib_a-callocr.o)
                0x0015bd10                _calloc_r
 .text.__set_ctype
                0x0015bda4       0x18 c:/devkitpro/devkitarm/bin/../lib/gcc/arm-none-eabi/4.9.2/../../../../arm-none-eabi/lib/armv6k/fpu\libg.a(lib_a-ctype_.o)
                0x0015bda4                __set_ctype
 .text.__fputwc
                0x0015bdbc      0x124 c:/devkitpro/devkitarm/bin/../lib/gcc/arm-none-eabi/4.9.2/../../../../arm-none-eabi/lib/armv6k/fpu\libg.a(lib_a-fputwc.o)
                0x0015bdbc                __fputwc
 .text._fputwc_r
                0x0015bee0       0xa8 c:/devkitpro/devkitarm/bin/../lib/gcc/arm-none-eabi/4.9.2/../../../../arm-none-eabi/lib/armv6k/fpu\libg.a(lib_a-fputwc.o)
                0x0015bee0                _fputwc_r
 .text.fputwc   0x0015bf88       0x3c c:/devkitpro/devkitarm/bin/../lib/gcc/arm-none-eabi/4.9.2/../../../../arm-none-eabi/lib/armv6k/fpu\libg.a(lib_a-fputwc.o)
                0x0015bf88                fputwc
 .text._findenv_r
                0x0015bfc4       0xc8 c:/devkitpro/devkitarm/bin/../lib/gcc/arm-none-eabi/4.9.2/../../../../arm-none-eabi/lib/armv6k/fpu\libg.a(lib_a-getenv_r.o)
                0x0015bfc4                _findenv_r
 .text._getenv_r
                0x0015c08c       0x18 c:/devkitpro/devkitarm/bin/../lib/gcc/arm-none-eabi/4.9.2/../../../../arm-none-eabi/lib/armv6k/fpu\libg.a(lib_a-getenv_r.o)
                0x0015c08c                _getenv_r
 .text.__env_lock
                0x0015c0a4        0x4 c:/devkitpro/devkitarm/bin/../lib/gcc/arm-none-eabi/4.9.2/../../../../arm-none-eabi/lib/armv6k/fpu\libg.a(lib_a-envlock.o)
                0x0015c0a4                __env_lock
 .text.__env_unlock
                0x0015c0a8        0x4 c:/devkitpro/devkitarm/bin/../lib/gcc/arm-none-eabi/4.9.2/../../../../arm-none-eabi/lib/armv6k/fpu\libg.a(lib_a-envlock.o)
                0x0015c0a8                __env_unlock
 .text.strnlen  0x0015c0ac       0x5c c:/devkitpro/devkitarm/bin/../lib/gcc/arm-none-eabi/4.9.2/../../../../arm-none-eabi/lib/armv6k/fpu\libg.a(lib_a-strnlen.o)
                0x0015c0ac                strnlen
 .text.strrchr  0x0015c108       0x44 c:/devkitpro/devkitarm/bin/../lib/gcc/arm-none-eabi/4.9.2/../../../../arm-none-eabi/lib/armv6k/fpu\libg.a(lib_a-strrchr.o)
                0x0015c108                strrchr
 *(.glue_7)
 .glue_7        0x0015c14c        0x0 linker stubs
 *(.glue_7t)
 .glue_7t       0x0015c14c        0x0 linker stubs
 *(.stub)
 *(.gnu.warning)
 *(.gnu.linkonce.t*)
                0x0015c14c                . = ALIGN (0x4)
 *(.fini)
 .fini          0x0015c14c        0xc c:/devkitpro/devkitarm/bin/../lib/gcc/arm-none-eabi/4.9.2/armv6k/fpu/crti.o
                0x0015c14c                _fini
 .fini          0x0015c158        0xc c:/devkitpro/devkitarm/bin/../lib/gcc/arm-none-eabi/4.9.2/armv6k/fpu/crtn.o
                0x0015c164                . = ALIGN (0x4)

.vfp11_veneer   0x0015c164        0x0
 .vfp11_veneer  0x0015c164        0x0 linker stubs

.v4_bx          0x0015c164        0x0
 .v4_bx         0x0015c164        0x0 linker stubs

.iplt           0x0015c164        0x0
 .iplt          0x0015c164        0x0 c:/devkitpro/devkitarm/bin/../lib/gcc/arm-none-eabi/4.9.2/../../../../arm-none-eabi/lib/armv6k/fpu/3dsx_crt0.o

.rodata         0x0015d000    0x1489c
 *(.rodata)
 .rodata        0x0015d000       0xcc 0.bin.o
                0x0015d000                _0_bin
                0x0015d0c7                _0_bin_end
                0x0015d0c8                _0_bin_size
 .rodata        0x0015d0cc      0x170 1.bin.o
                0x0015d0cc                _1_bin
                0x0015d235                _1_bin_end
                0x0015d238                _1_bin_size
 .rodata        0x0015d23c      0x218 2.bin.o
                0x0015d23c                _2_bin
                0x0015d44f                _2_bin_end
                0x0015d450                _2_bin_size
 .rodata        0x0015d454      0x27c 3.bin.o
                0x0015d454                _3_bin
                0x0015d6c9                _3_bin_end
                0x0015d6cc                _3_bin_size
 .rodata        0x0015d6d0      0x1e8 4.bin.o
                0x0015d6d0                _4_bin
                0x0015d8b3                _4_bin_end
                0x0015d8b4                _4_bin_size
 .rodata        0x0015d8b8      0x240 5.bin.o
                0x0015d8b8                _5_bin
                0x0015daf3                _5_bin_end
                0x0015daf4                _5_bin_size
 .rodata        0x0015daf8      0x2c0 6.bin.o
                0x0015daf8                _6_bin
                0x0015ddb3                _6_bin_end
                0x0015ddb4                _6_bin_size
 .rodata        0x0015ddb8      0x1f0 7.bin.o
                0x0015ddb8                _7_bin
                0x0015dfa4                _7_bin_size
                0x0015dfa4                _7_bin_end
 .rodata        0x0015dfa8      0x2cc 8.bin.o
                0x0015dfa8                _8_bin
                0x0015e26f                _8_bin_end
                0x0015e270                _8_bin_size
 .rodata        0x0015e274      0x298 9.bin.o
                0x0015e274                _9_bin
                0x0015e508                _9_bin_end
                0x0015e508                _9_bin_size
 .rodata        0x0015e50c     0x9288 bg.bin.o
                0x0015e50c                bg_bin
                0x0016778d                bg_bin_end
                0x00167790                bg_bin_size
 .rodata        0x00167794      0x9b8 immut_numbers.bin.o
                0x00167794                immut_numbers_bin
                0x00168147                immut_numbers_bin_end
                0x00168148                immut_numbers_bin_size
 .rodata        0x0016814c      0xb28 mut_numbers.bin.o
                0x0016814c                mut_numbers_bin
                0x00168c70                mut_numbers_bin_size
                0x00168c70                mut_numbers_bin_end
 .rodata        0x00168c74      0x114 selector.bin.o
                0x00168c74                selector_bin
                0x00168d83                selector_bin_end
                0x00168d84                selector_bin_size
 .rodata        0x00168d88      0x9a8 c:/devkitPro/portlibs/armv6k/lib\libpng.a(png.o)
                0x00168f30                png_sRGB_delta
                0x00169130                png_sRGB_base
                0x00169530                png_sRGB_table
 .rodata        0x00169730       0x24 c:/devkitPro/portlibs/armv6k/lib\libpng.a(pngerror.o)
 .rodata        0x00169754       0x20 c:/devkitPro/portlibs/armv6k/lib\libpng.a(pngread.o)
 .rodata        0x00169774      0x124 c:/devkitPro/portlibs/armv6k/lib\libpng.a(pngrutil.o)
 .rodata        0x00169898       0x58 c:/devkitPro/portlibs/armv6k/lib\libpng.a(pngset.o)
 .rodata        0x001698f0      0x300 c:/devkitPro/portlibs/armv6k/lib\libpng.a(pngtrans.o)
 .rodata        0x00169bf0       0x38 c:/devkitPro/portlibs/armv6k/lib\libpng.a(pngwutil.o)
 .rodata        0x00169c28     0x2000 c:/devkitPro/portlibs/armv6k/lib\libz.a(crc32.o)
 .rodata        0x0016bc28       0xbc c:/devkitPro/portlibs/armv6k/lib\libz.a(deflate.o)
                0x0016bca0                deflate_copyright
 .rodata        0x0016bce4      0x8a8 c:/devkitPro/portlibs/armv6k/lib\libz.a(inflate.o)
 .rodata        0x0016c58c      0x130 c:/devkitPro/portlibs/armv6k/lib\libz.a(inftrees.o)
                0x0016c68c                inflate_copyright
 .rodata        0x0016c6bc      0xa30 c:/devkitPro/portlibs/armv6k/lib\libz.a(trees.o)
                0x0016c6bc                _length_code
                0x0016c8a4                _dist_code
 .rodata        0x0016d0ec       0x28 c:/devkitPro/portlibs/armv6k/lib\libz.a(zutil.o)
                0x0016d0ec                z_errmsg
 .rodata        0x0016d114       0x30 c:/devkitPro/libctru/lib\libsf2d.a(sf2d_texture.o)
 .rodata        0x0016d144      0x158 c:/devkitPro/libctru/lib\libsf2d.a(shader.vsh.o)
                0x0016d144                shader_vsh_shbin
                0x0016d297                shader_vsh_shbin_end
                0x0016d298                shader_vsh_shbin_size
 .rodata        0x0016d29c       0x14 c:/devkitPro/libctru/lib\libctru.a(gfx.o)
 .rodata        0x0016d2b0       0x2c c:/devkitPro/libctru/lib\libctru.a(os.o)
 .rodata        0x0016d2dc        0xc c:/devkitPro/libctru/lib\libctru.a(gpu.o)
                0x0016d2dc                GPU_FORMATSIZE
                0x0016d2e0                GPU_TEVID
 .rodata        0x0016d2e8        0x8 c:/devkitPro/libctru/lib\libctru.a(shaderProgram.o)
 .rodata        0x0016d2f0       0x24 c:/devkitPro/libctru/lib\libctru.a(shbin.o)
 .rodata        0x0016d314        0xc c:/devkitPro/libctru/lib\libctru.a(apt.o)
 .rodata        0x0016d320       0x30 c:/devkitPro/libctru/lib\libctru.a(sdmc_dev.o)
 .rodata        0x0016d350       0x68 c:/devkitpro/devkitarm/bin/../lib/gcc/arm-none-eabi/4.9.2/../../../../arm-none-eabi/lib/armv6k/fpu\libsysbase.a(iosupport.o)
                0x0016d350                dotab_stdnull
 .rodata        0x0016d3b8        0xc c:/devkitpro/devkitarm/bin/../lib/gcc/arm-none-eabi/4.9.2/../../../../arm-none-eabi/lib/armv6k/fpu\libsysbase.a(chdir.o)
                0x0016d3b8                DIRECTORY_PARENT
                0x0016d3bc                DIRECTORY_THIS
                0x0016d3c0                DIRECTORY_SEPARATOR
 *(.roda)
 *(.rodata.*)
 .rodata.str1.4
                0x0016d3c4       0x60 mylib.o
 .rodata.str1.4
                0x0016d424        0x4 sudoku.o
 .rodata.str1.4
                0x0016d428        0xb c:/devkitPro/libctru/lib\libsfil.a(sfil_png.o)
                                  0xc (size before relaxing)
 *fill*         0x0016d433        0x1 
 .rodata.str1.4
                0x0016d434      0x99a c:/devkitPro/portlibs/armv6k/lib\libpng.a(png.o)
                                0x9bc (size before relaxing)
 *fill*         0x0016ddce        0x2 
 .rodata.str1.4
                0x0016ddd0       0xa2 c:/devkitPro/portlibs/armv6k/lib\libpng.a(pngerror.o)
                                 0xa4 (size before relaxing)
 .rodata.str1.4
                0x0016de72       0xa2 c:/devkitPro/portlibs/armv6k/lib\libpng.a(pngget.o)
                                 0x18 (size before relaxing)
 *fill*         0x0016de72        0x2 
 .rodata.str1.4
                0x0016de74       0x5a c:/devkitPro/portlibs/armv6k/lib\libpng.a(pngmem.o)
                                 0x5c (size before relaxing)
 *fill*         0x0016dece        0x2 
 .rodata.str1.4
                0x0016ded0      0x879 c:/devkitPro/portlibs/armv6k/lib\libpng.a(pngread.o)
                                0x888 (size before relaxing)
 *fill*         0x0016e749        0x3 
 .rodata.str1.4
                0x0016e74c       0x6c c:/devkitPro/portlibs/armv6k/lib\libpng.a(pngrio.o)
 .rodata.str1.4
                0x0016e7b8      0x344 c:/devkitPro/portlibs/armv6k/lib\libpng.a(pngrtran.o)
 .rodata.str1.4
                0x0016eafc      0x52d c:/devkitPro/portlibs/armv6k/lib\libpng.a(pngrutil.o)
                                0x578 (size before relaxing)
 *fill*         0x0016f029        0x3 
 .rodata.str1.4
                0x0016f02c      0x5ee c:/devkitPro/portlibs/armv6k/lib\libpng.a(pngset.o)
                                0x60c (size before relaxing)
 *fill*         0x0016f61a        0x2 
 .rodata.str1.4
                0x0016f61c       0xa3 c:/devkitPro/portlibs/armv6k/lib\libpng.a(pngtrans.o)
                                 0xa4 (size before relaxing)
 *fill*         0x0016f6bf        0x1 
 .rodata.str1.4
                0x0016f6c0      0x3fd c:/devkitPro/portlibs/armv6k/lib\libpng.a(pngwrite.o)
                                0x43c (size before relaxing)
 *fill*         0x0016fabd        0x3 
 .rodata.str1.4
                0x0016fac0      0x6be c:/devkitPro/portlibs/armv6k/lib\libpng.a(pngwutil.o)
                                0x6dc (size before relaxing)
 *fill*         0x0017017e        0x2 
 .rodata.str1.4
                0x00170180       0x28 c:/devkitPro/portlibs/armv6k/lib\libpng.a(pngwio.o)
                                 0x6c (size before relaxing)
 .rodata.str1.4
                0x001701a8      0x1e7 c:/devkitPro/portlibs/armv6k/lib\libz.a(inflate.o)
                                0x1e8 (size before relaxing)
 *fill*         0x0017038f        0x1 
 .rodata.str1.4
                0x00170390       0x69 c:/devkitPro/portlibs/armv6k/lib\libz.a(zutil.o)
                                 0x8c (size before relaxing)
 .rodata.str1.4
                0x001703f9       0x54 c:/devkitPro/portlibs/armv6k/lib\libz.a(inffast.o)
 *fill*         0x001703f9        0x3 
 .rodata.str1.4
                0x001703fc        0xb c:/devkitPro/libctru/lib\libsf2d.a(sf2d.o)
                                  0xc (size before relaxing)
 *fill*         0x00170407        0x1 
 .rodata.str1.4
                0x00170408       0xc4 c:/devkitPro/libctru/lib\libctru.a(os.o)
 .rodata.str1.4
                0x001704cc       0x16 c:/devkitPro/libctru/lib\libctru.a(apt.o)
                                 0x18 (size before relaxing)
 *fill*         0x001704e2        0x2 
 .rodata.str1.4
                0x001704e4        0x9 c:/devkitPro/libctru/lib\libctru.a(gsp.o)
                                  0xc (size before relaxing)
 *fill*         0x001704ed        0x3 
 .rodata.str1.4
                0x001704f0       0x15 c:/devkitPro/libctru/lib\libctru.a(hid.o)
                                 0x18 (size before relaxing)
 *fill*         0x00170505        0x3 
 .rodata.str1.4
                0x00170508        0x7 c:/devkitPro/libctru/lib\libctru.a(irrst.o)
                                  0x8 (size before relaxing)
 *fill*         0x0017050f        0x1 
 .rodata.str1.4
                0x00170510        0xf c:/devkitPro/libctru/lib\libctru.a(srv.o)
                                 0x10 (size before relaxing)
 *fill*         0x0017051f        0x1 
 .rodata.str1.4
                0x00170520        0x5 c:/devkitPro/libctru/lib\libctru.a(sdmc_dev.o)
                                  0xc (size before relaxing)
 *fill*         0x00170525        0x3 
 .rodata.str1.4
                0x00170528        0x8 c:/devkitPro/libctru/lib\libctru.a(fs.o)
 .rodata.str1.4
                0x00170530        0x4 c:/devkitpro/devkitarm/bin/../lib/gcc/arm-none-eabi/4.9.2/../../../../arm-none-eabi/lib/armv6k/fpu\libm.a(lib_a-w_pow.o)
 .rodata.npio2_hw
                0x00170534       0x80 c:/devkitpro/devkitarm/bin/../lib/gcc/arm-none-eabi/4.9.2/../../../../arm-none-eabi/lib/armv6k/fpu\libm.a(lib_a-ef_rem_pio2.o)
 .rodata.two_over_pi
                0x001705b4      0x318 c:/devkitpro/devkitarm/bin/../lib/gcc/arm-none-eabi/4.9.2/../../../../arm-none-eabi/lib/armv6k/fpu\libm.a(lib_a-ef_rem_pio2.o)
 *fill*         0x001708cc        0x4 
 .rodata.dp_h   0x001708d0       0x10 c:/devkitpro/devkitarm/bin/../lib/gcc/arm-none-eabi/4.9.2/../../../../arm-none-eabi/lib/armv6k/fpu\libm.a(lib_a-e_pow.o)
 .rodata.dp_l   0x001708e0       0x10 c:/devkitpro/devkitarm/bin/../lib/gcc/arm-none-eabi/4.9.2/../../../../arm-none-eabi/lib/armv6k/fpu\libm.a(lib_a-e_pow.o)
 .rodata.bp     0x001708f0       0x10 c:/devkitpro/devkitarm/bin/../lib/gcc/arm-none-eabi/4.9.2/../../../../arm-none-eabi/lib/armv6k/fpu\libm.a(lib_a-e_pow.o)
 .rodata.str1.4
                0x00170900        0x4 c:/devkitpro/devkitarm/bin/../lib/gcc/arm-none-eabi/4.9.2/../../../../arm-none-eabi/lib/armv6k/fpu\libm.a(lib_a-e_pow.o)
 .rodata.init_jk
                0x00170900        0xc c:/devkitpro/devkitarm/bin/../lib/gcc/arm-none-eabi/4.9.2/../../../../arm-none-eabi/lib/armv6k/fpu\libm.a(lib_a-kf_rem_pio2.o)
 .rodata.PIo2   0x0017090c       0x2c c:/devkitpro/devkitarm/bin/../lib/gcc/arm-none-eabi/4.9.2/../../../../arm-none-eabi/lib/armv6k/fpu\libm.a(lib_a-kf_rem_pio2.o)
 .rodata.TWO52  0x00170938       0x10 c:/devkitpro/devkitarm/bin/../lib/gcc/arm-none-eabi/4.9.2/../../../../arm-none-eabi/lib/armv6k/fpu\libm.a(lib_a-s_rint.o)
 .rodata.str1.4
                0x00170948        0x2 c:/devkitpro/devkitarm/bin/../lib/gcc/arm-none-eabi/4.9.2/../../../../arm-none-eabi/lib/armv6k/fpu\libg.a(lib_a-impure.o)
                                  0x4 (size before relaxing)
 *fill*         0x0017094a        0x2 
 .rodata._global_impure_ptr
                0x0017094c        0x4 c:/devkitpro/devkitarm/bin/../lib/gcc/arm-none-eabi/4.9.2/../../../../arm-none-eabi/lib/armv6k/fpu\libg.a(lib_a-impure.o)
                0x0017094c                _global_impure_ptr
 .rodata.__month_lengths
                0x00170950       0x60 c:/devkitpro/devkitarm/bin/../lib/gcc/arm-none-eabi/4.9.2/../../../../arm-none-eabi/lib/armv6k/fpu\libg.a(lib_a-month_lengths.o)
                0x00170950                __month_lengths
 .rodata.str1.4
                0x001709b0      0x6fd c:/devkitpro/devkitarm/bin/../lib/gcc/arm-none-eabi/4.9.2/../../../../arm-none-eabi/lib/armv6k/fpu\libg.a(lib_a-strerror.o)
                                0x704 (size before relaxing)
 *fill*         0x001710ad        0x3 
 .rodata.fpinan.5303
                0x001710b0       0x14 c:/devkitpro/devkitarm/bin/../lib/gcc/arm-none-eabi/4.9.2/../../../../arm-none-eabi/lib/armv6k/fpu\libg.a(lib_a-strtod.o)
 .rodata.str1.4
                0x001710c4        0xf c:/devkitpro/devkitarm/bin/../lib/gcc/arm-none-eabi/4.9.2/../../../../arm-none-eabi/lib/armv6k/fpu\libg.a(lib_a-strtod.o)
                                 0x10 (size before relaxing)
 *fill*         0x001710d3        0x5 
 .rodata.tinytens
                0x001710d8       0x28 c:/devkitpro/devkitarm/bin/../lib/gcc/arm-none-eabi/4.9.2/../../../../arm-none-eabi/lib/armv6k/fpu\libg.a(lib_a-strtod.o)
 .rodata.fpi.5267
                0x00171100       0x14 c:/devkitpro/devkitarm/bin/../lib/gcc/arm-none-eabi/4.9.2/../../../../arm-none-eabi/lib/armv6k/fpu\libg.a(lib_a-strtod.o)
 .rodata.zeroes.7052
                0x00171114       0x10 c:/devkitpro/devkitarm/bin/../lib/gcc/arm-none-eabi/4.9.2/../../../../arm-none-eabi/lib/armv6k/fpu\libg.a(lib_a-vfprintf.o)
 .rodata.str1.4
                0x00171124       0x3f c:/devkitpro/devkitarm/bin/../lib/gcc/arm-none-eabi/4.9.2/../../../../arm-none-eabi/lib/armv6k/fpu\libg.a(lib_a-vfprintf.o)
                                 0x44 (size before relaxing)
 *fill*         0x00171163        0x1 
 .rodata.blanks.7051
                0x00171164       0x10 c:/devkitpro/devkitarm/bin/../lib/gcc/arm-none-eabi/4.9.2/../../../../arm-none-eabi/lib/armv6k/fpu\libg.a(lib_a-vfprintf.o)
 .rodata.str1.4
                0x00171174       0x10 c:/devkitpro/devkitarm/bin/../lib/gcc/arm-none-eabi/4.9.2/../../../../arm-none-eabi/lib/armv6k/fpu\libg.a(lib_a-dtoa.o)
                                 0x14 (size before relaxing)
 .rodata.__hexdig
                0x00171184      0x100 c:/devkitpro/devkitarm/bin/../lib/gcc/arm-none-eabi/4.9.2/../../../../arm-none-eabi/lib/armv6k/fpu\libg.a(lib_a-gdtoa-gethex.o)
                0x00171184                __hexdig
 .rodata.str1.4
                0x00171284      0x124 c:/devkitpro/devkitarm/bin/../lib/gcc/arm-none-eabi/4.9.2/../../../../arm-none-eabi/lib/armv6k/fpu\libg.a(lib_a-locale.o)
                                0x130 (size before relaxing)
 .rodata.categories
                0x001713a8       0x1c c:/devkitpro/devkitarm/bin/../lib/gcc/arm-none-eabi/4.9.2/../../../../arm-none-eabi/lib/armv6k/fpu\libg.a(lib_a-locale.o)
 .rodata.JIS_state_table
                0x001713c4       0x48 c:/devkitpro/devkitarm/bin/../lib/gcc/arm-none-eabi/4.9.2/../../../../arm-none-eabi/lib/armv6k/fpu\libg.a(lib_a-mbtowc_r.o)
 .rodata.JIS_action_table
                0x0017140c       0x48 c:/devkitpro/devkitarm/bin/../lib/gcc/arm-none-eabi/4.9.2/../../../../arm-none-eabi/lib/armv6k/fpu\libg.a(lib_a-mbtowc_r.o)
 .rodata.p05.5298
                0x00171454        0xc c:/devkitpro/devkitarm/bin/../lib/gcc/arm-none-eabi/4.9.2/../../../../arm-none-eabi/lib/armv6k/fpu\libg.a(lib_a-mprec.o)
 .rodata.__mprec_tens
                0x00171460       0xc8 c:/devkitpro/devkitarm/bin/../lib/gcc/arm-none-eabi/4.9.2/../../../../arm-none-eabi/lib/armv6k/fpu\libg.a(lib_a-mprec.o)
                0x00171460                __mprec_tens
 .rodata.__mprec_bigtens
                0x00171528       0x28 c:/devkitpro/devkitarm/bin/../lib/gcc/arm-none-eabi/4.9.2/../../../../arm-none-eabi/lib/armv6k/fpu\libg.a(lib_a-mprec.o)
                0x00171528                __mprec_bigtens
 .rodata.__mprec_tinytens
                0x00171550       0x28 c:/devkitpro/devkitarm/bin/../lib/gcc/arm-none-eabi/4.9.2/../../../../arm-none-eabi/lib/armv6k/fpu\libg.a(lib_a-mprec.o)
                0x00171550                __mprec_tinytens
 .rodata.__state_table
                0x00171578       0x6c c:/devkitpro/devkitarm/bin/../lib/gcc/arm-none-eabi/4.9.2/../../../../arm-none-eabi/lib/armv6k/fpu\libg.a(lib_a-svfiprintf.o)
                0x00171578                __state_table
 .rodata.blanks.7015
                0x001715e4       0x10 c:/devkitpro/devkitarm/bin/../lib/gcc/arm-none-eabi/4.9.2/../../../../arm-none-eabi/lib/armv6k/fpu\libg.a(lib_a-svfiprintf.o)
 .rodata.__chclass
                0x001715f4      0x100 c:/devkitpro/devkitarm/bin/../lib/gcc/arm-none-eabi/4.9.2/../../../../arm-none-eabi/lib/armv6k/fpu\libg.a(lib_a-svfiprintf.o)
                0x001715f4                __chclass
 .rodata.str1.4
                0x001716f4       0x30 c:/devkitpro/devkitarm/bin/../lib/gcc/arm-none-eabi/4.9.2/../../../../arm-none-eabi/lib/armv6k/fpu\libg.a(lib_a-svfiprintf.o)
 .rodata.__action_table
                0x001716f4       0x6c c:/devkitpro/devkitarm/bin/../lib/gcc/arm-none-eabi/4.9.2/../../../../arm-none-eabi/lib/armv6k/fpu\libg.a(lib_a-svfiprintf.o)
                0x001716f4                __action_table
 .rodata.zeroes.7016
                0x00171760       0x10 c:/devkitpro/devkitarm/bin/../lib/gcc/arm-none-eabi/4.9.2/../../../../arm-none-eabi/lib/armv6k/fpu\libg.a(lib_a-svfiprintf.o)
 .rodata.zeroes.7030
                0x00171770       0x10 c:/devkitpro/devkitarm/bin/../lib/gcc/arm-none-eabi/4.9.2/../../../../arm-none-eabi/lib/armv6k/fpu\libg.a(lib_a-vfiprintf.o)
 .rodata.str1.4
                0x00171780       0x30 c:/devkitpro/devkitarm/bin/../lib/gcc/arm-none-eabi/4.9.2/../../../../arm-none-eabi/lib/armv6k/fpu\libg.a(lib_a-vfiprintf.o)
 .rodata.blanks.7029
                0x00171780       0x10 c:/devkitpro/devkitarm/bin/../lib/gcc/arm-none-eabi/4.9.2/../../../../arm-none-eabi/lib/armv6k/fpu\libg.a(lib_a-vfiprintf.o)
 .rodata._ctype_
                0x00171790      0x104 c:/devkitpro/devkitarm/bin/../lib/gcc/arm-none-eabi/4.9.2/../../../../arm-none-eabi/lib/armv6k/fpu\libg.a(lib_a-ctype_.o)
                0x00171790                _ctype_
 .rodata.str1.4
                0x00171894        0x8 c:/devkitpro/devkitarm/bin/../lib/gcc/arm-none-eabi/4.9.2/../../../../arm-none-eabi/lib/armv6k/fpu\libsysbase.a(iosupport.o)
 *all.rodata*(*)
 *(.gnu.linkonce.r*)
                0x0017189c                . = ALIGN (0x4)

.rel.dyn        0x0017189c        0x0
 .rel.iplt      0x0017189c        0x0 c:/devkitpro/devkitarm/bin/../lib/gcc/arm-none-eabi/4.9.2/../../../../arm-none-eabi/lib/armv6k/fpu/3dsx_crt0.o

.ARM.extab
 *(.ARM.extab* .gnu.linkonce.armextab.*)
                0x0017189c                __exidx_start = .

ARM.exidx
 *(.ARM.exidx* .gnu.linkonce.armexidx.*)
                0x0017189c                __exidx_end = .

.data           0x00172000     0x4050
 *(.data)
 .data          0x00172000        0x0 c:/devkitpro/devkitarm/bin/../lib/gcc/arm-none-eabi/4.9.2/../../../../arm-none-eabi/lib/armv6k/fpu/3dsx_crt0.o
 .data          0x00172000        0x0 c:/devkitpro/devkitarm/bin/../lib/gcc/arm-none-eabi/4.9.2/armv6k/fpu/crti.o
 .data          0x00172000        0x4 c:/devkitpro/devkitarm/bin/../lib/gcc/arm-none-eabi/4.9.2/armv6k/fpu/crtbegin.o
                0x00172000                __dso_handle
 .data          0x00172004        0x0 0.bin.o
 .data          0x00172004        0x0 1.bin.o
 .data          0x00172004        0x0 2.bin.o
 .data          0x00172004        0x0 3.bin.o
 .data          0x00172004        0x0 4.bin.o
 .data          0x00172004        0x0 5.bin.o
 .data          0x00172004        0x0 6.bin.o
 .data          0x00172004        0x0 7.bin.o
 .data          0x00172004        0x0 8.bin.o
 .data          0x00172004        0x0 9.bin.o
 .data          0x00172004        0x0 bg.bin.o
 .data          0x00172004        0x0 immut_numbers.bin.o
 .data          0x00172004        0x0 mut_numbers.bin.o
 .data          0x00172004        0x0 selector.bin.o
 .data          0x00172004        0x0 gfx.o
 .data          0x00172004        0x0 main.o
 .data          0x00172004        0x0 mylib.o
 .data          0x00172004        0x0 sudoku.o
 .data          0x00172004        0x0 c:/devkitPro/libctru/lib\libsfil.a(sfil_png.o)
 .data          0x00172004        0x0 c:/devkitPro/portlibs/armv6k/lib\libpng.a(png.o)
 .data          0x00172004        0x0 c:/devkitPro/portlibs/armv6k/lib\libpng.a(pngerror.o)
 .data          0x00172004        0x0 c:/devkitPro/portlibs/armv6k/lib\libpng.a(pngget.o)
 .data          0x00172004        0x0 c:/devkitPro/portlibs/armv6k/lib\libpng.a(pngmem.o)
 .data          0x00172004        0x0 c:/devkitPro/portlibs/armv6k/lib\libpng.a(pngread.o)
 .data          0x00172004        0x0 c:/devkitPro/portlibs/armv6k/lib\libpng.a(pngrio.o)
 .data          0x00172004        0x0 c:/devkitPro/portlibs/armv6k/lib\libpng.a(pngrtran.o)
 .data          0x00172004        0x0 c:/devkitPro/portlibs/armv6k/lib\libpng.a(pngrutil.o)
 .data          0x00172004        0x0 c:/devkitPro/portlibs/armv6k/lib\libpng.a(pngset.o)
 .data          0x00172004        0x0 c:/devkitPro/portlibs/armv6k/lib\libpng.a(pngtrans.o)
 .data          0x00172004        0x0 c:/devkitPro/portlibs/armv6k/lib\libpng.a(pngwrite.o)
 .data          0x00172004        0x0 c:/devkitPro/portlibs/armv6k/lib\libpng.a(pngwtran.o)
 .data          0x00172004        0x0 c:/devkitPro/portlibs/armv6k/lib\libpng.a(pngwutil.o)
 .data          0x00172004        0x0 c:/devkitPro/portlibs/armv6k/lib\libpng.a(pngwio.o)
 .data          0x00172004        0x0 c:/devkitPro/portlibs/armv6k/lib\libz.a(adler32.o)
 .data          0x00172004        0x0 c:/devkitPro/portlibs/armv6k/lib\libz.a(crc32.o)
 .data          0x00172004        0x0 c:/devkitPro/portlibs/armv6k/lib\libz.a(deflate.o)
 .data          0x00172004        0x0 c:/devkitPro/portlibs/armv6k/lib\libz.a(inflate.o)
 .data          0x00172004        0x0 c:/devkitPro/portlibs/armv6k/lib\libz.a(inftrees.o)
 .data          0x00172004       0x3c c:/devkitPro/portlibs/armv6k/lib\libz.a(trees.o)
 .data          0x00172040        0x0 c:/devkitPro/portlibs/armv6k/lib\libz.a(zutil.o)
 .data          0x00172040        0x0 c:/devkitPro/portlibs/armv6k/lib\libz.a(inffast.o)
 .data          0x00172040        0xc c:/devkitPro/libctru/lib\libsf2d.a(sf2d.o)
 .data          0x0017204c        0x0 c:/devkitPro/libctru/lib\libsf2d.a(sf2d_draw.o)
 .data          0x0017204c        0x0 c:/devkitPro/libctru/lib\libsf2d.a(sf2d_private.o)
 .data          0x0017204c        0x0 c:/devkitPro/libctru/lib\libsf2d.a(sf2d_texture.o)
 .data          0x0017204c        0x0 c:/devkitPro/libctru/lib\libsf2d.a(shader.vsh.o)
 .data          0x0017204c        0x0 c:/devkitPro/libctru/lib\libctru.a(linear.o)
 .data          0x0017204c        0x0 c:/devkitPro/libctru/lib\libctru.a(mem_pool.o)
 .data          0x0017204c        0x0 c:/devkitPro/libctru/lib\libctru.a(vram.o)
 .data          0x0017204c        0xc c:/devkitPro/libctru/lib\libctru.a(gfx.o)
 .data          0x00172058        0x0 c:/devkitPro/libctru/lib\libctru.a(os.o)
 .data          0x00172058        0x0 c:/devkitPro/libctru/lib\libctru.a(gpu.o)
 .data          0x00172058      0x53c c:/devkitPro/libctru/lib\libctru.a(gpuResetSequence.o)
                0x00172058                gpuResetSequenceLength
                0x0017205c                gpuResetSequence
 .data          0x00172594        0x0 c:/devkitPro/libctru/lib\libctru.a(shaderProgram.o)
 .data          0x00172594        0x0 c:/devkitPro/libctru/lib\libctru.a(shbin.o)
 .data          0x00172594        0x0 c:/devkitPro/libctru/lib\libctru.a(apt.o)
 .data          0x00172594        0x0 c:/devkitPro/libctru/lib\libctru.a(gsp.o)
 .data          0x00172594        0x0 c:/devkitPro/libctru/lib\libctru.a(gx.o)
 .data          0x00172594        0x0 c:/devkitPro/libctru/lib\libctru.a(hid.o)
 .data          0x00172594        0x0 c:/devkitPro/libctru/lib\libctru.a(irrst.o)
 .data          0x00172594        0x0 c:/devkitPro/libctru/lib\libctru.a(rbtree_find.o)
 .data          0x00172594        0x0 c:/devkitPro/libctru/lib\libctru.a(rbtree_init.o)
 .data          0x00172594        0x0 c:/devkitPro/libctru/lib\libctru.a(rbtree_insert.o)
 .data          0x00172594        0x0 c:/devkitPro/libctru/lib\libctru.a(rbtree_remove.o)
 .data          0x00172594        0x0 c:/devkitPro/libctru/lib\libctru.a(rbtree_rotate.o)
 .data          0x00172594        0x0 c:/devkitPro/libctru/lib\libctru.a(allocateHeaps.o)
 .data          0x00172594        0x0 c:/devkitPro/libctru/lib\libctru.a(initArgv.o)
 .data          0x00172594        0x0 c:/devkitPro/libctru/lib\libctru.a(initSystem.o)
 .data          0x00172594        0x0 c:/devkitPro/libctru/lib\libctru.a(svc.o)
 .data          0x00172594        0x4 c:/devkitPro/libctru/lib\libctru.a(stack_adjust.o)
                0x00172594                __stacksize__
 .data          0x00172598        0x0 c:/devkitPro/libctru/lib\libctru.a(srv.o)
 .data          0x00172598        0x0 c:/devkitPro/libctru/lib\libctru.a(rbtree_iterator.o)
 .data          0x00172598        0x0 c:/devkitPro/libctru/lib\libctru.a(appExit.o)
 .data          0x00172598        0x0 c:/devkitPro/libctru/lib\libctru.a(appInit.o)
 .data          0x00172598        0x0 c:/devkitPro/libctru/lib\libctru.a(ctru_exit.o)
 .data          0x00172598     0x1084 c:/devkitPro/libctru/lib\libctru.a(sdmc_dev.o)
 .data          0x0017361c        0x0 c:/devkitPro/libctru/lib\libctru.a(fs.o)
 .data          0x0017361c        0x0 c:/devkitPro/libctru/lib\libctru.a(decode_utf8.o)
 .data          0x0017361c        0x0 c:/devkitPro/libctru/lib\libctru.a(utf16_to_utf8.o)
 .data          0x0017361c        0x0 c:/devkitPro/libctru/lib\libctru.a(utf8_to_utf16.o)
 .data          0x0017361c        0x0 c:/devkitPro/libctru/lib\libctru.a(decode_utf16.o)
 .data          0x0017361c        0x0 c:/devkitPro/libctru/lib\libctru.a(encode_utf16.o)
 .data          0x0017361c        0x0 c:/devkitPro/libctru/lib\libctru.a(encode_utf8.o)
 .data          0x0017361c        0x0 c:/devkitpro/devkitarm/bin/../lib/gcc/arm-none-eabi/4.9.2/../../../../arm-none-eabi/lib/armv6k/fpu\libm.a(lib_a-sf_cos.o)
 .data          0x0017361c        0x0 c:/devkitpro/devkitarm/bin/../lib/gcc/arm-none-eabi/4.9.2/../../../../arm-none-eabi/lib/armv6k/fpu\libm.a(lib_a-s_floor.o)
 .data          0x0017361c        0x0 c:/devkitpro/devkitarm/bin/../lib/gcc/arm-none-eabi/4.9.2/../../../../arm-none-eabi/lib/armv6k/fpu\libm.a(lib_a-s_frexp.o)
 .data          0x0017361c        0x0 c:/devkitpro/devkitarm/bin/../lib/gcc/arm-none-eabi/4.9.2/../../../../arm-none-eabi/lib/armv6k/fpu\libm.a(lib_a-sf_sin.o)
 .data          0x0017361c        0x0 c:/devkitpro/devkitarm/bin/../lib/gcc/arm-none-eabi/4.9.2/../../../../arm-none-eabi/lib/armv6k/fpu\libm.a(lib_a-s_modf.o)
 .data          0x0017361c        0x0 c:/devkitpro/devkitarm/bin/../lib/gcc/arm-none-eabi/4.9.2/../../../../arm-none-eabi/lib/armv6k/fpu\libm.a(lib_a-w_pow.o)
 .data          0x0017361c        0x0 c:/devkitpro/devkitarm/bin/../lib/gcc/arm-none-eabi/4.9.2/../../../../arm-none-eabi/lib/armv6k/fpu\libm.a(lib_a-ef_rem_pio2.o)
 .data          0x0017361c        0x0 c:/devkitpro/devkitarm/bin/../lib/gcc/arm-none-eabi/4.9.2/../../../../arm-none-eabi/lib/armv6k/fpu\libm.a(lib_a-e_pow.o)
 .data          0x0017361c        0x0 c:/devkitpro/devkitarm/bin/../lib/gcc/arm-none-eabi/4.9.2/../../../../arm-none-eabi/lib/armv6k/fpu\libm.a(lib_a-e_sqrt.o)
 .data          0x0017361c        0x0 c:/devkitpro/devkitarm/bin/../lib/gcc/arm-none-eabi/4.9.2/../../../../arm-none-eabi/lib/armv6k/fpu\libm.a(lib_a-kf_cos.o)
 .data          0x0017361c        0x0 c:/devkitpro/devkitarm/bin/../lib/gcc/arm-none-eabi/4.9.2/../../../../arm-none-eabi/lib/armv6k/fpu\libm.a(lib_a-kf_rem_pio2.o)
 .data          0x0017361c        0x0 c:/devkitpro/devkitarm/bin/../lib/gcc/arm-none-eabi/4.9.2/../../../../arm-none-eabi/lib/armv6k/fpu\libm.a(lib_a-kf_sin.o)
 .data          0x0017361c        0x0 c:/devkitpro/devkitarm/bin/../lib/gcc/arm-none-eabi/4.9.2/../../../../arm-none-eabi/lib/armv6k/fpu\libm.a(lib_a-s_fabs.o)
 .data          0x0017361c        0x0 c:/devkitpro/devkitarm/bin/../lib/gcc/arm-none-eabi/4.9.2/../../../../arm-none-eabi/lib/armv6k/fpu\libm.a(lib_a-sf_fabs.o)
 .data          0x0017361c        0x0 c:/devkitpro/devkitarm/bin/../lib/gcc/arm-none-eabi/4.9.2/../../../../arm-none-eabi/lib/armv6k/fpu\libm.a(lib_a-sf_floor.o)
 .data          0x0017361c        0x0 c:/devkitpro/devkitarm/bin/../lib/gcc/arm-none-eabi/4.9.2/../../../../arm-none-eabi/lib/armv6k/fpu\libm.a(lib_a-s_finite.o)
 .data          0x0017361c        0x0 c:/devkitpro/devkitarm/bin/../lib/gcc/arm-none-eabi/4.9.2/../../../../arm-none-eabi/lib/armv6k/fpu\libm.a(lib_a-s_fpclassify.o)
 .data          0x0017361c        0x0 c:/devkitpro/devkitarm/bin/../lib/gcc/arm-none-eabi/4.9.2/../../../../arm-none-eabi/lib/armv6k/fpu\libm.a(lib_a-sf_scalbn.o)
 .data          0x0017361c        0x0 c:/devkitpro/devkitarm/bin/../lib/gcc/arm-none-eabi/4.9.2/../../../../arm-none-eabi/lib/armv6k/fpu\libm.a(lib_a-s_lib_ver.o)
 .data          0x0017361c        0x0 c:/devkitpro/devkitarm/bin/../lib/gcc/arm-none-eabi/4.9.2/../../../../arm-none-eabi/lib/armv6k/fpu\libm.a(lib_a-s_matherr.o)
 .data          0x0017361c        0x0 c:/devkitpro/devkitarm/bin/../lib/gcc/arm-none-eabi/4.9.2/../../../../arm-none-eabi/lib/armv6k/fpu\libm.a(lib_a-s_nan.o)
 .data          0x0017361c        0x0 c:/devkitpro/devkitarm/bin/../lib/gcc/arm-none-eabi/4.9.2/../../../../arm-none-eabi/lib/armv6k/fpu\libm.a(lib_a-s_rint.o)
 .data          0x0017361c        0x0 c:/devkitpro/devkitarm/bin/../lib/gcc/arm-none-eabi/4.9.2/../../../../arm-none-eabi/lib/armv6k/fpu\libm.a(lib_a-s_scalbn.o)
 .data          0x0017361c        0x0 c:/devkitpro/devkitarm/bin/../lib/gcc/arm-none-eabi/4.9.2/../../../../arm-none-eabi/lib/armv6k/fpu\libm.a(lib_a-s_copysign.o)
 .data          0x0017361c        0x0 c:/devkitpro/devkitarm/bin/../lib/gcc/arm-none-eabi/4.9.2/../../../../arm-none-eabi/lib/armv6k/fpu\libm.a(lib_a-sf_copysign.o)
 .data          0x0017361c        0x0 c:/devkitpro/devkitarm/bin/../lib/gcc/arm-none-eabi/4.9.2/armv6k/fpu\libgcc.a(_udivsi3.o)
 .data          0x0017361c        0x0 c:/devkitpro/devkitarm/bin/../lib/gcc/arm-none-eabi/4.9.2/armv6k/fpu\libgcc.a(_divsi3.o)
 .data          0x0017361c        0x0 c:/devkitpro/devkitarm/bin/../lib/gcc/arm-none-eabi/4.9.2/armv6k/fpu\libgcc.a(_dvmd_tls.o)
 .data          0x0017361c        0x0 c:/devkitpro/devkitarm/bin/../lib/gcc/arm-none-eabi/4.9.2/armv6k/fpu\libgcc.a(_arm_addsubsf3.o)
 .data          0x0017361c        0x0 c:/devkitpro/devkitarm/bin/../lib/gcc/arm-none-eabi/4.9.2/../../../../arm-none-eabi/lib/armv6k/fpu\libg.a(lib_a-abort.o)
 .data          0x0017361c        0x0 c:/devkitpro/devkitarm/bin/../lib/gcc/arm-none-eabi/4.9.2/../../../../arm-none-eabi/lib/armv6k/fpu\libg.a(lib_a-atof.o)
 .data          0x0017361c        0x0 c:/devkitpro/devkitarm/bin/../lib/gcc/arm-none-eabi/4.9.2/../../../../arm-none-eabi/lib/armv6k/fpu\libg.a(lib_a-bsearch.o)
 .data          0x0017361c        0x0 c:/devkitpro/devkitarm/bin/../lib/gcc/arm-none-eabi/4.9.2/../../../../arm-none-eabi/lib/armv6k/fpu\libg.a(lib_a-errno.o)
 .data          0x0017361c        0x0 c:/devkitpro/devkitarm/bin/../lib/gcc/arm-none-eabi/4.9.2/../../../../arm-none-eabi/lib/armv6k/fpu\libg.a(lib_a-exit.o)
 .data          0x0017361c        0x0 c:/devkitpro/devkitarm/bin/../lib/gcc/arm-none-eabi/4.9.2/../../../../arm-none-eabi/lib/armv6k/fpu\libg.a(lib_a-fclose.o)
 .data          0x0017361c        0x0 c:/devkitpro/devkitarm/bin/../lib/gcc/arm-none-eabi/4.9.2/../../../../arm-none-eabi/lib/armv6k/fpu\libg.a(lib_a-fflush.o)
 .data          0x0017361c        0x0 c:/devkitpro/devkitarm/bin/../lib/gcc/arm-none-eabi/4.9.2/../../../../arm-none-eabi/lib/armv6k/fpu\libg.a(lib_a-findfp.o)
 .data          0x0017361c        0x0 c:/devkitpro/devkitarm/bin/../lib/gcc/arm-none-eabi/4.9.2/../../../../arm-none-eabi/lib/armv6k/fpu\libg.a(lib_a-fini.o)
 .data          0x0017361c        0x0 c:/devkitpro/devkitarm/bin/../lib/gcc/arm-none-eabi/4.9.2/../../../../arm-none-eabi/lib/armv6k/fpu\libg.a(lib_a-fopen.o)
 .data          0x0017361c        0x0 c:/devkitpro/devkitarm/bin/../lib/gcc/arm-none-eabi/4.9.2/../../../../arm-none-eabi/lib/armv6k/fpu\libg.a(lib_a-fprintf.o)
 .data          0x0017361c        0x0 c:/devkitpro/devkitarm/bin/../lib/gcc/arm-none-eabi/4.9.2/../../../../arm-none-eabi/lib/armv6k/fpu\libg.a(lib_a-fputc.o)
 .data          0x0017361c        0x0 c:/devkitpro/devkitarm/bin/../lib/gcc/arm-none-eabi/4.9.2/../../../../arm-none-eabi/lib/armv6k/fpu\libg.a(lib_a-fread.o)
 .data          0x0017361c        0x0 c:/devkitpro/devkitarm/bin/../lib/gcc/arm-none-eabi/4.9.2/../../../../arm-none-eabi/lib/armv6k/fpu\libg.a(lib_a-freer.o)
 .data          0x0017361c        0x0 c:/devkitpro/devkitarm/bin/../lib/gcc/arm-none-eabi/4.9.2/../../../../arm-none-eabi/lib/armv6k/fpu\libg.a(lib_a-fseek.o)
 .data          0x0017361c        0x0 c:/devkitpro/devkitarm/bin/../lib/gcc/arm-none-eabi/4.9.2/../../../../arm-none-eabi/lib/armv6k/fpu\libg.a(lib_a-fseeko.o)
 .data          0x0017361c        0x0 c:/devkitpro/devkitarm/bin/../lib/gcc/arm-none-eabi/4.9.2/../../../../arm-none-eabi/lib/armv6k/fpu\libg.a(lib_a-fwalk.o)
 .data          0x0017361c        0x0 c:/devkitpro/devkitarm/bin/../lib/gcc/arm-none-eabi/4.9.2/../../../../arm-none-eabi/lib/armv6k/fpu\libg.a(lib_a-fwrite.o)
 .data          0x0017361c        0x0 c:/devkitpro/devkitarm/bin/../lib/gcc/arm-none-eabi/4.9.2/../../../../arm-none-eabi/lib/armv6k/fpu\libg.a(lib_a-gmtime.o)
 .data          0x0017361c        0x0 c:/devkitpro/devkitarm/bin/../lib/gcc/arm-none-eabi/4.9.2/../../../../arm-none-eabi/lib/armv6k/fpu\libg.a(lib_a-gmtime_r.o)
 .data          0x0017361c        0x0 c:/devkitpro/devkitarm/bin/../lib/gcc/arm-none-eabi/4.9.2/../../../../arm-none-eabi/lib/armv6k/fpu\libg.a(lib_a-impure.o)
 .data          0x0017361c        0x0 c:/devkitpro/devkitarm/bin/../lib/gcc/arm-none-eabi/4.9.2/../../../../arm-none-eabi/lib/armv6k/fpu\libg.a(lib_a-init.o)
 .data          0x0017361c        0x0 c:/devkitpro/devkitarm/bin/../lib/gcc/arm-none-eabi/4.9.2/../../../../arm-none-eabi/lib/armv6k/fpu\libg.a(lib_a-makebuf.o)
 .data          0x0017361c        0x0 c:/devkitpro/devkitarm/bin/../lib/gcc/arm-none-eabi/4.9.2/../../../../arm-none-eabi/lib/armv6k/fpu\libg.a(lib_a-malloc.o)
 .data          0x0017361c        0x0 c:/devkitpro/devkitarm/bin/../lib/gcc/arm-none-eabi/4.9.2/../../../../arm-none-eabi/lib/armv6k/fpu\libg.a(lib_a-mallocr.o)
 .data          0x0017361c        0x0 c:/devkitpro/devkitarm/bin/../lib/gcc/arm-none-eabi/4.9.2/../../../../arm-none-eabi/lib/armv6k/fpu\libg.a(lib_a-memcmp.o)
 .data          0x0017361c        0x0 c:/devkitpro/devkitarm/bin/../lib/gcc/arm-none-eabi/4.9.2/../../../../arm-none-eabi/lib/armv6k/fpu\libg.a(lib_a-memcpy.o)
 .data          0x0017361c        0x0 c:/devkitpro/devkitarm/bin/../lib/gcc/arm-none-eabi/4.9.2/../../../../arm-none-eabi/lib/armv6k/fpu\libg.a(lib_a-memset.o)
 .data          0x0017361c        0x0 c:/devkitpro/devkitarm/bin/../lib/gcc/arm-none-eabi/4.9.2/../../../../arm-none-eabi/lib/armv6k/fpu\libg.a(lib_a-mlock.o)
 .data          0x0017361c        0x0 c:/devkitpro/devkitarm/bin/../lib/gcc/arm-none-eabi/4.9.2/../../../../arm-none-eabi/lib/armv6k/fpu\libg.a(lib_a-month_lengths.o)
 .data          0x0017361c        0x0 c:/devkitpro/devkitarm/bin/../lib/gcc/arm-none-eabi/4.9.2/../../../../arm-none-eabi/lib/armv6k/fpu\libg.a(lib_a-printf.o)
 .data          0x0017361c        0x0 c:/devkitpro/devkitarm/bin/../lib/gcc/arm-none-eabi/4.9.2/../../../../arm-none-eabi/lib/armv6k/fpu\libg.a(lib_a-putchar.o)
 .data          0x0017361c        0x0 c:/devkitpro/devkitarm/bin/../lib/gcc/arm-none-eabi/4.9.2/../../../../arm-none-eabi/lib/armv6k/fpu\libg.a(lib_a-putc.o)
 .data          0x0017361c        0x0 c:/devkitpro/devkitarm/bin/../lib/gcc/arm-none-eabi/4.9.2/../../../../arm-none-eabi/lib/armv6k/fpu\libg.a(lib_a-rand.o)
 .data          0x0017361c        0x0 c:/devkitpro/devkitarm/bin/../lib/gcc/arm-none-eabi/4.9.2/../../../../arm-none-eabi/lib/armv6k/fpu\libg.a(lib_a-realloc.o)
 .data          0x0017361c        0x0 c:/devkitpro/devkitarm/bin/../lib/gcc/arm-none-eabi/4.9.2/../../../../arm-none-eabi/lib/armv6k/fpu\libg.a(lib_a-reallocr.o)
 .data          0x0017361c        0x0 c:/devkitpro/devkitarm/bin/../lib/gcc/arm-none-eabi/4.9.2/../../../../arm-none-eabi/lib/armv6k/fpu\libg.a(lib_a-refill.o)
 .data          0x0017361c        0x0 c:/devkitpro/devkitarm/bin/../lib/gcc/arm-none-eabi/4.9.2/../../../../arm-none-eabi/lib/armv6k/fpu\libg.a(lib_a-remove.o)
 .data          0x0017361c        0x0 c:/devkitpro/devkitarm/bin/../lib/gcc/arm-none-eabi/4.9.2/../../../../arm-none-eabi/lib/armv6k/fpu\libg.a(lib_a-setjmp.o)
 .data          0x0017361c        0x0 c:/devkitpro/devkitarm/bin/../lib/gcc/arm-none-eabi/4.9.2/../../../../arm-none-eabi/lib/armv6k/fpu\libg.a(lib_a-signal.o)
 .data          0x0017361c        0x0 c:/devkitpro/devkitarm/bin/../lib/gcc/arm-none-eabi/4.9.2/../../../../arm-none-eabi/lib/armv6k/fpu\libg.a(lib_a-stdio.o)
 .data          0x0017361c        0x0 c:/devkitpro/devkitarm/bin/../lib/gcc/arm-none-eabi/4.9.2/../../../../arm-none-eabi/lib/armv6k/fpu\libg.a(lib_a-strcmp.o)
 .data          0x0017361c        0x0 c:/devkitpro/devkitarm/bin/../lib/gcc/arm-none-eabi/4.9.2/../../../../arm-none-eabi/lib/armv6k/fpu\libg.a(lib_a-strcpy.o)
 .data          0x0017361c        0x0 c:/devkitpro/devkitarm/bin/../lib/gcc/arm-none-eabi/4.9.2/../../../../arm-none-eabi/lib/armv6k/fpu\libg.a(lib_a-strerror.o)
 .data          0x0017361c        0x0 c:/devkitpro/devkitarm/bin/../lib/gcc/arm-none-eabi/4.9.2/../../../../arm-none-eabi/lib/armv6k/fpu\libg.a(lib_a-strlen.o)
 .data          0x0017361c        0x0 c:/devkitpro/devkitarm/bin/../lib/gcc/arm-none-eabi/4.9.2/../../../../arm-none-eabi/lib/armv6k/fpu\libg.a(lib_a-strncat.o)
 .data          0x0017361c        0x0 c:/devkitpro/devkitarm/bin/../lib/gcc/arm-none-eabi/4.9.2/../../../../arm-none-eabi/lib/armv6k/fpu\libg.a(lib_a-strncpy.o)
 .data          0x0017361c        0x0 c:/devkitpro/devkitarm/bin/../lib/gcc/arm-none-eabi/4.9.2/../../../../arm-none-eabi/lib/armv6k/fpu\libg.a(lib_a-strtod.o)
 .data          0x0017361c        0x0 c:/devkitpro/devkitarm/bin/../lib/gcc/arm-none-eabi/4.9.2/../../../../arm-none-eabi/lib/armv6k/fpu\libg.a(lib_a-time.o)
 .data          0x0017361c        0x0 c:/devkitpro/devkitarm/bin/../lib/gcc/arm-none-eabi/4.9.2/../../../../arm-none-eabi/lib/armv6k/fpu\libg.a(lib_a-u_strerr.o)
 .data          0x0017361c        0x0 c:/devkitpro/devkitarm/bin/../lib/gcc/arm-none-eabi/4.9.2/../../../../arm-none-eabi/lib/armv6k/fpu\libg.a(lib_a-vfprintf.o)
 .data          0x0017361c        0x0 c:/devkitpro/devkitarm/bin/../lib/gcc/arm-none-eabi/4.9.2/../../../../arm-none-eabi/lib/armv6k/fpu\libg.a(lib_a-wbuf.o)
 .data          0x0017361c        0x0 c:/devkitpro/devkitarm/bin/../lib/gcc/arm-none-eabi/4.9.2/../../../../arm-none-eabi/lib/armv6k/fpu\libg.a(lib_a-wcrtomb.o)
 .data          0x0017361c        0x0 c:/devkitpro/devkitarm/bin/../lib/gcc/arm-none-eabi/4.9.2/../../../../arm-none-eabi/lib/armv6k/fpu\libg.a(lib_a-wcsrtombs.o)
 .data          0x0017361c        0x0 c:/devkitpro/devkitarm/bin/../lib/gcc/arm-none-eabi/4.9.2/../../../../arm-none-eabi/lib/armv6k/fpu\libg.a(lib_a-wctomb_r.o)
 .data          0x0017361c        0x0 c:/devkitpro/devkitarm/bin/../lib/gcc/arm-none-eabi/4.9.2/../../../../arm-none-eabi/lib/armv6k/fpu\libg.a(lib_a-wsetup.o)
 .data          0x0017361c        0x0 c:/devkitpro/devkitarm/bin/../lib/gcc/arm-none-eabi/4.9.2/../../../../arm-none-eabi/lib/armv6k/fpu\libg.a(lib_a-__call_atexit.o)
 .data          0x0017361c        0x0 c:/devkitpro/devkitarm/bin/../lib/gcc/arm-none-eabi/4.9.2/../../../../arm-none-eabi/lib/armv6k/fpu\libg.a(lib_a-dtoa.o)
 .data          0x0017361c        0x0 c:/devkitpro/devkitarm/bin/../lib/gcc/arm-none-eabi/4.9.2/../../../../arm-none-eabi/lib/armv6k/fpu\libg.a(lib_a-flags.o)
 .data          0x0017361c        0x0 c:/devkitpro/devkitarm/bin/../lib/gcc/arm-none-eabi/4.9.2/../../../../arm-none-eabi/lib/armv6k/fpu\libg.a(lib_a-fvwrite.o)
 .data          0x0017361c        0x0 c:/devkitpro/devkitarm/bin/../lib/gcc/arm-none-eabi/4.9.2/../../../../arm-none-eabi/lib/armv6k/fpu\libg.a(lib_a-gdtoa-gethex.o)
 .data          0x0017361c        0x0 c:/devkitpro/devkitarm/bin/../lib/gcc/arm-none-eabi/4.9.2/../../../../arm-none-eabi/lib/armv6k/fpu\libg.a(lib_a-gdtoa-hexnan.o)
 .data          0x0017361c        0x0 c:/devkitpro/devkitarm/bin/../lib/gcc/arm-none-eabi/4.9.2/../../../../arm-none-eabi/lib/armv6k/fpu\libg.a(lib_a-locale.o)
 .data          0x0017361c        0x0 c:/devkitpro/devkitarm/bin/../lib/gcc/arm-none-eabi/4.9.2/../../../../arm-none-eabi/lib/armv6k/fpu\libg.a(lib_a-mbtowc_r.o)
 .data          0x0017361c        0x0 c:/devkitpro/devkitarm/bin/../lib/gcc/arm-none-eabi/4.9.2/../../../../arm-none-eabi/lib/armv6k/fpu\libg.a(lib_a-memchr.o)
 .data          0x0017361c        0x0 c:/devkitpro/devkitarm/bin/../lib/gcc/arm-none-eabi/4.9.2/../../../../arm-none-eabi/lib/armv6k/fpu\libg.a(lib_a-memmove.o)
 .data          0x0017361c        0x0 c:/devkitpro/devkitarm/bin/../lib/gcc/arm-none-eabi/4.9.2/../../../../arm-none-eabi/lib/armv6k/fpu\libg.a(lib_a-mprec.o)
 .data          0x0017361c        0x0 c:/devkitpro/devkitarm/bin/../lib/gcc/arm-none-eabi/4.9.2/../../../../arm-none-eabi/lib/armv6k/fpu\libg.a(lib_a-sf_nan.o)
 .data          0x0017361c        0x0 c:/devkitpro/devkitarm/bin/../lib/gcc/arm-none-eabi/4.9.2/../../../../arm-none-eabi/lib/armv6k/fpu\libg.a(lib_a-strcasecmp.o)
 .data          0x0017361c        0x0 c:/devkitpro/devkitarm/bin/../lib/gcc/arm-none-eabi/4.9.2/../../../../arm-none-eabi/lib/armv6k/fpu\libg.a(lib_a-strcat.o)
 .data          0x0017361c        0x0 c:/devkitpro/devkitarm/bin/../lib/gcc/arm-none-eabi/4.9.2/../../../../arm-none-eabi/lib/armv6k/fpu\libg.a(lib_a-strchr.o)
 .data          0x0017361c        0x0 c:/devkitpro/devkitarm/bin/../lib/gcc/arm-none-eabi/4.9.2/../../../../arm-none-eabi/lib/armv6k/fpu\libg.a(lib_a-strlcpy.o)
 .data          0x0017361c        0x0 c:/devkitpro/devkitarm/bin/../lib/gcc/arm-none-eabi/4.9.2/../../../../arm-none-eabi/lib/armv6k/fpu\libg.a(lib_a-strncasecmp.o)
 .data          0x0017361c        0x0 c:/devkitpro/devkitarm/bin/../lib/gcc/arm-none-eabi/4.9.2/../../../../arm-none-eabi/lib/armv6k/fpu\libg.a(lib_a-strncmp.o)
 .data          0x0017361c        0x0 c:/devkitpro/devkitarm/bin/../lib/gcc/arm-none-eabi/4.9.2/../../../../arm-none-eabi/lib/armv6k/fpu\libg.a(lib_a-strtol.o)
 .data          0x0017361c        0x0 c:/devkitpro/devkitarm/bin/../lib/gcc/arm-none-eabi/4.9.2/../../../../arm-none-eabi/lib/armv6k/fpu\libg.a(lib_a-svfiprintf.o)
 .data          0x0017361c        0x0 c:/devkitpro/devkitarm/bin/../lib/gcc/arm-none-eabi/4.9.2/../../../../arm-none-eabi/lib/armv6k/fpu\libg.a(lib_a-vfiprintf.o)
 .data          0x0017361c        0x0 c:/devkitpro/devkitarm/bin/../lib/gcc/arm-none-eabi/4.9.2/../../../../arm-none-eabi/lib/armv6k/fpu\libg.a(lib_a-wcsnrtombs.o)
 .data          0x0017361c        0x0 c:/devkitpro/devkitarm/bin/../lib/gcc/arm-none-eabi/4.9.2/../../../../arm-none-eabi/lib/armv6k/fpu\libg.a(lib_a-callocr.o)
 .data          0x0017361c        0x0 c:/devkitpro/devkitarm/bin/../lib/gcc/arm-none-eabi/4.9.2/../../../../arm-none-eabi/lib/armv6k/fpu\libg.a(lib_a-ctype_.o)
 .data          0x0017361c        0x0 c:/devkitpro/devkitarm/bin/../lib/gcc/arm-none-eabi/4.9.2/../../../../arm-none-eabi/lib/armv6k/fpu\libg.a(lib_a-fputwc.o)
 .data          0x0017361c        0x0 c:/devkitpro/devkitarm/bin/../lib/gcc/arm-none-eabi/4.9.2/../../../../arm-none-eabi/lib/armv6k/fpu\libg.a(lib_a-getenv_r.o)
 .data          0x0017361c        0x0 c:/devkitpro/devkitarm/bin/../lib/gcc/arm-none-eabi/4.9.2/../../../../arm-none-eabi/lib/armv6k/fpu\libg.a(lib_a-environ.o)
 .data          0x0017361c        0x0 c:/devkitpro/devkitarm/bin/../lib/gcc/arm-none-eabi/4.9.2/../../../../arm-none-eabi/lib/armv6k/fpu\libg.a(lib_a-envlock.o)
 .data          0x0017361c       0x44 c:/devkitpro/devkitarm/bin/../lib/gcc/arm-none-eabi/4.9.2/../../../../arm-none-eabi/lib/armv6k/fpu\libsysbase.a(iosupport.o)
                0x00173620                devoptab_list
 .data          0x00173660        0x0 c:/devkitpro/devkitarm/bin/../lib/gcc/arm-none-eabi/4.9.2/../../../../arm-none-eabi/lib/armv6k/fpu\libsysbase.a(close.o)
 .data          0x00173660        0x0 c:/devkitpro/devkitarm/bin/../lib/gcc/arm-none-eabi/4.9.2/../../../../arm-none-eabi/lib/armv6k/fpu\libsysbase.a(fstat.o)
 .data          0x00173660        0x0 c:/devkitpro/devkitarm/bin/../lib/gcc/arm-none-eabi/4.9.2/../../../../arm-none-eabi/lib/armv6k/fpu\libsysbase.a(getpid.o)
 .data          0x00173660        0x0 c:/devkitpro/devkitarm/bin/../lib/gcc/arm-none-eabi/4.9.2/../../../../arm-none-eabi/lib/armv6k/fpu\libsysbase.a(gettod.o)
 .data          0x00173660        0x0 c:/devkitpro/devkitarm/bin/../lib/gcc/arm-none-eabi/4.9.2/../../../../arm-none-eabi/lib/armv6k/fpu\libsysbase.a(isatty.o)
 .data          0x00173660        0x0 c:/devkitpro/devkitarm/bin/../lib/gcc/arm-none-eabi/4.9.2/../../../../arm-none-eabi/lib/armv6k/fpu\libsysbase.a(kill.o)
 .data          0x00173660        0x0 c:/devkitpro/devkitarm/bin/../lib/gcc/arm-none-eabi/4.9.2/../../../../arm-none-eabi/lib/armv6k/fpu\libsysbase.a(lseek.o)
 .data          0x00173660        0x0 c:/devkitpro/devkitarm/bin/../lib/gcc/arm-none-eabi/4.9.2/../../../../arm-none-eabi/lib/armv6k/fpu\libsysbase.a(open.o)
 .data          0x00173660        0x0 c:/devkitpro/devkitarm/bin/../lib/gcc/arm-none-eabi/4.9.2/../../../../arm-none-eabi/lib/armv6k/fpu\libsysbase.a(read.o)
 .data          0x00173660        0x0 c:/devkitpro/devkitarm/bin/../lib/gcc/arm-none-eabi/4.9.2/../../../../arm-none-eabi/lib/armv6k/fpu\libsysbase.a(sbrk.o)
 .data          0x00173660        0x0 c:/devkitpro/devkitarm/bin/../lib/gcc/arm-none-eabi/4.9.2/../../../../arm-none-eabi/lib/armv6k/fpu\libsysbase.a(unlink.o)
 .data          0x00173660        0x0 c:/devkitpro/devkitarm/bin/../lib/gcc/arm-none-eabi/4.9.2/../../../../arm-none-eabi/lib/armv6k/fpu\libsysbase.a(write.o)
 .data          0x00173660        0x0 c:/devkitpro/devkitarm/bin/../lib/gcc/arm-none-eabi/4.9.2/../../../../arm-none-eabi/lib/armv6k/fpu\libsysbase.a(_exit.o)
 .data          0x00173660        0x0 c:/devkitpro/devkitarm/bin/../lib/gcc/arm-none-eabi/4.9.2/../../../../arm-none-eabi/lib/armv6k/fpu\libsysbase.a(malloc_vars.o)
 .data          0x00173660     0x1000 c:/devkitpro/devkitarm/bin/../lib/gcc/arm-none-eabi/4.9.2/../../../../arm-none-eabi/lib/armv6k/fpu\libsysbase.a(chdir.o)
 .data          0x00174660        0x0 c:/devkitpro/devkitarm/bin/../lib/gcc/arm-none-eabi/4.9.2/../../../../arm-none-eabi/lib/armv6k/fpu\libsysbase.a(flock.o)
 .data          0x00174660        0x0 c:/devkitpro/devkitarm/bin/../lib/gcc/arm-none-eabi/4.9.2/../../../../arm-none-eabi/lib/armv6k/fpu\libsysbase.a(syscall_support.o)
 .data          0x00174660     0x1024 c:/devkitpro/devkitarm/bin/../lib/gcc/arm-none-eabi/4.9.2/../../../../arm-none-eabi/lib/armv6k/fpu\libsysbase.a(handle_manager.o)
 .data          0x00175684        0x0 c:/devkitpro/devkitarm/bin/../lib/gcc/arm-none-eabi/4.9.2/../../../../arm-none-eabi/lib/armv6k/fpu\libsysbase.a(getreent.o)
 .data          0x00175684        0x0 c:/devkitpro/devkitarm/bin/../lib/gcc/arm-none-eabi/4.9.2/armv6k/fpu\libgcc.a(_aeabi_uldivmod.o)
 .data          0x00175684        0x0 c:/devkitpro/devkitarm/bin/../lib/gcc/arm-none-eabi/4.9.2/armv6k/fpu\libgcc.a(bpabi.o)
 .data          0x00175684        0x0 c:/devkitpro/devkitarm/bin/../lib/gcc/arm-none-eabi/4.9.2/armv6k/fpu\libgcc.a(_divdi3.o)
 .data          0x00175684        0x0 c:/devkitpro/devkitarm/bin/../lib/gcc/arm-none-eabi/4.9.2/armv6k/fpu\libgcc.a(_udivdi3.o)
 .data          0x00175684        0x0 c:/devkitpro/devkitarm/bin/../lib/gcc/arm-none-eabi/4.9.2/../../../../arm-none-eabi/lib/armv6k/fpu\libg.a(lib_a-strnlen.o)
 .data          0x00175684        0x0 c:/devkitpro/devkitarm/bin/../lib/gcc/arm-none-eabi/4.9.2/../../../../arm-none-eabi/lib/armv6k/fpu\libg.a(lib_a-strrchr.o)
 .data          0x00175684        0x0 c:/devkitpro/devkitarm/bin/../lib/gcc/arm-none-eabi/4.9.2/armv6k/fpu/crtend.o
 .data          0x00175684        0x0 c:/devkitpro/devkitarm/bin/../lib/gcc/arm-none-eabi/4.9.2/armv6k/fpu/crtn.o
 *(.data.*)
 .data.__fdlib_version
                0x00175684        0x1 c:/devkitpro/devkitarm/bin/../lib/gcc/arm-none-eabi/4.9.2/../../../../arm-none-eabi/lib/armv6k/fpu\libm.a(lib_a-s_lib_ver.o)
                0x00175684                __fdlib_version
 *fill*         0x00175685        0x3 
 .data.impure_data
                0x00175688      0x428 c:/devkitpro/devkitarm/bin/../lib/gcc/arm-none-eabi/4.9.2/../../../../arm-none-eabi/lib/armv6k/fpu\libg.a(lib_a-impure.o)
 .data._impure_ptr
                0x00175ab0        0x4 c:/devkitpro/devkitarm/bin/../lib/gcc/arm-none-eabi/4.9.2/../../../../arm-none-eabi/lib/armv6k/fpu\libg.a(lib_a-impure.o)
                0x00175ab0                _impure_ptr
 .data.__malloc_av_
                0x00175ab4      0x408 c:/devkitpro/devkitarm/bin/../lib/gcc/arm-none-eabi/4.9.2/../../../../arm-none-eabi/lib/armv6k/fpu\libg.a(lib_a-mallocr.o)
                0x00175ab4                __malloc_av_
 .data.__malloc_trim_threshold
                0x00175ebc        0x4 c:/devkitpro/devkitarm/bin/../lib/gcc/arm-none-eabi/4.9.2/../../../../arm-none-eabi/lib/armv6k/fpu\libg.a(lib_a-mallocr.o)
                0x00175ebc                __malloc_trim_threshold
 .data.__malloc_sbrk_base
                0x00175ec0        0x4 c:/devkitpro/devkitarm/bin/../lib/gcc/arm-none-eabi/4.9.2/../../../../arm-none-eabi/lib/armv6k/fpu\libg.a(lib_a-mallocr.o)
                0x00175ec0                __malloc_sbrk_base
 .data.__wctomb
                0x00175ec4        0x4 c:/devkitpro/devkitarm/bin/../lib/gcc/arm-none-eabi/4.9.2/../../../../arm-none-eabi/lib/armv6k/fpu\libg.a(lib_a-wctomb_r.o)
                0x00175ec4                __wctomb
 .data.lc_message_charset
                0x00175ec8       0x20 c:/devkitpro/devkitarm/bin/../lib/gcc/arm-none-eabi/4.9.2/../../../../arm-none-eabi/lib/armv6k/fpu\libg.a(lib_a-locale.o)
 .data.lconv    0x00175ee8       0x38 c:/devkitpro/devkitarm/bin/../lib/gcc/arm-none-eabi/4.9.2/../../../../arm-none-eabi/lib/armv6k/fpu\libg.a(lib_a-locale.o)
 .data.current_categories
                0x00175f20       0xe0 c:/devkitpro/devkitarm/bin/../lib/gcc/arm-none-eabi/4.9.2/../../../../arm-none-eabi/lib/armv6k/fpu\libg.a(lib_a-locale.o)
 .data.lc_ctype_charset
                0x00176000       0x20 c:/devkitpro/devkitarm/bin/../lib/gcc/arm-none-eabi/4.9.2/../../../../arm-none-eabi/lib/armv6k/fpu\libg.a(lib_a-locale.o)
 .data.__default_locale
                0x00176020       0x20 c:/devkitpro/devkitarm/bin/../lib/gcc/arm-none-eabi/4.9.2/../../../../arm-none-eabi/lib/armv6k/fpu\libg.a(lib_a-locale.o)
                0x00176020                __default_locale
 .data.__mb_cur_max
                0x00176040        0x4 c:/devkitpro/devkitarm/bin/../lib/gcc/arm-none-eabi/4.9.2/../../../../arm-none-eabi/lib/armv6k/fpu\libg.a(lib_a-locale.o)
                0x00176040                __mb_cur_max
 .data.__mbtowc
                0x00176044        0x4 c:/devkitpro/devkitarm/bin/../lib/gcc/arm-none-eabi/4.9.2/../../../../arm-none-eabi/lib/armv6k/fpu\libg.a(lib_a-mbtowc_r.o)
                0x00176044                __mbtowc
 .data.__ctype_ptr__
                0x00176048        0x4 c:/devkitpro/devkitarm/bin/../lib/gcc/arm-none-eabi/4.9.2/../../../../arm-none-eabi/lib/armv6k/fpu\libg.a(lib_a-ctype_.o)
                0x00176048                __ctype_ptr__
 .data.environ  0x0017604c        0x4 c:/devkitpro/devkitarm/bin/../lib/gcc/arm-none-eabi/4.9.2/../../../../arm-none-eabi/lib/armv6k/fpu\libg.a(lib_a-environ.o)
                0x0017604c                environ
 *(.gnu.linkonce.d*)
                0x00176050                . = ALIGN (0x4)

.igot.plt       0x00176050        0x0
 .igot.plt      0x00176050        0x0 c:/devkitpro/devkitarm/bin/../lib/gcc/arm-none-eabi/4.9.2/../../../../arm-none-eabi/lib/armv6k/fpu/3dsx_crt0.o

.eh_frame       0x00176050       0x74
 .eh_frame      0x00176050        0x0 c:/devkitpro/devkitarm/bin/../lib/gcc/arm-none-eabi/4.9.2/armv6k/fpu/crtbegin.o
 .eh_frame      0x00176050       0x70 c:/devkitpro/devkitarm/bin/../lib/gcc/arm-none-eabi/4.9.2/../../../../arm-none-eabi/lib/armv6k/fpu\libg.a(lib_a-strcmp.o)
 .eh_frame      0x001760c0        0x4 c:/devkitpro/devkitarm/bin/../lib/gcc/arm-none-eabi/4.9.2/armv6k/fpu/crtend.o

.jcr            0x001760c4        0x4
 .jcr           0x001760c4        0x0 c:/devkitpro/devkitarm/bin/../lib/gcc/arm-none-eabi/4.9.2/armv6k/fpu/crtbegin.o
 .jcr           0x001760c4        0x4 c:/devkitpro/devkitarm/bin/../lib/gcc/arm-none-eabi/4.9.2/armv6k/fpu/crtend.o

.tm_clone_table
                0x001760c8        0x0
 .tm_clone_table
                0x001760c8        0x0 c:/devkitpro/devkitarm/bin/../lib/gcc/arm-none-eabi/4.9.2/armv6k/fpu/crtbegin.o
 .tm_clone_table
                0x001760c8        0x0 c:/devkitpro/devkitarm/bin/../lib/gcc/arm-none-eabi/4.9.2/armv6k/fpu/crtend.o
                0x001760c8                __TMC_END__

.preinit_array  0x001760c8        0x0
                0x001760c8                PROVIDE (__preinit_array_start, .)
 *(.preinit_array)
                0x001760c8                PROVIDE (__preinit_array_end, .)

.init_array     0x001760c8        0x4
                0x001760c8                PROVIDE (__init_array_start, .)
 *(SORT(.init_array.*))
 *(.init_array)
 .init_array    0x001760c8        0x4 c:/devkitpro/devkitarm/bin/../lib/gcc/arm-none-eabi/4.9.2/armv6k/fpu/crtbegin.o
                0x001760cc                PROVIDE (__init_array_end, .)

.fini_array     0x001760cc        0x4
                0x001760cc                PROVIDE (__fini_array_start, .)
 *(.fini_array)
 .fini_array    0x001760cc        0x4 c:/devkitpro/devkitarm/bin/../lib/gcc/arm-none-eabi/4.9.2/armv6k/fpu/crtbegin.o
 *(SORT(.fini_array.*))
                0x001760d0                PROVIDE (__fini_array_end, .)

.ctors
 *crtbegin.o(.ctors)
 *(EXCLUDE_FILE(*crtend.o) .ctors)
 *(SORT(.ctors.*))
 *(.ctors)

.dtors
 *crtbegin.o(.dtors)
 *(EXCLUDE_FILE(*crtend.o) .dtors)
 *(SORT(.dtors.*))
 *(.dtors)
                0x001760d0                __bss_start__ = .

.bss            0x001760d0     0xba48
 *(.dynbss)
 *(.bss)
 .bss           0x001760d0        0x0 c:/devkitpro/devkitarm/bin/../lib/gcc/arm-none-eabi/4.9.2/../../../../arm-none-eabi/lib/armv6k/fpu/3dsx_crt0.o
 .bss           0x001760d0        0x0 c:/devkitpro/devkitarm/bin/../lib/gcc/arm-none-eabi/4.9.2/armv6k/fpu/crti.o
 .bss           0x001760d0       0x1c c:/devkitpro/devkitarm/bin/../lib/gcc/arm-none-eabi/4.9.2/armv6k/fpu/crtbegin.o
 .bss           0x001760ec        0x0 0.bin.o
 .bss           0x001760ec        0x0 1.bin.o
 .bss           0x001760ec        0x0 2.bin.o
 .bss           0x001760ec        0x0 3.bin.o
 .bss           0x001760ec        0x0 4.bin.o
 .bss           0x001760ec        0x0 5.bin.o
 .bss           0x001760ec        0x0 6.bin.o
 .bss           0x001760ec        0x0 7.bin.o
 .bss           0x001760ec        0x0 8.bin.o
 .bss           0x001760ec        0x0 9.bin.o
 .bss           0x001760ec        0x0 bg.bin.o
 .bss           0x001760ec        0x0 immut_numbers.bin.o
 .bss           0x001760ec        0x0 mut_numbers.bin.o
 .bss           0x001760ec        0x0 selector.bin.o
 .bss           0x001760ec        0x0 gfx.o
 .bss           0x001760ec        0x0 main.o
 .bss           0x001760ec        0x0 mylib.o
 .bss           0x001760ec        0x0 sudoku.o
 .bss           0x001760ec        0x0 c:/devkitPro/libctru/lib\libsfil.a(sfil_png.o)
 .bss           0x001760ec        0x0 c:/devkitPro/portlibs/armv6k/lib\libpng.a(png.o)
 .bss           0x001760ec        0x0 c:/devkitPro/portlibs/armv6k/lib\libpng.a(pngerror.o)
 .bss           0x001760ec        0x0 c:/devkitPro/portlibs/armv6k/lib\libpng.a(pngget.o)
 .bss           0x001760ec        0x0 c:/devkitPro/portlibs/armv6k/lib\libpng.a(pngmem.o)
 .bss           0x001760ec        0x0 c:/devkitPro/portlibs/armv6k/lib\libpng.a(pngread.o)
 .bss           0x001760ec        0x0 c:/devkitPro/portlibs/armv6k/lib\libpng.a(pngrio.o)
 .bss           0x001760ec        0x0 c:/devkitPro/portlibs/armv6k/lib\libpng.a(pngrtran.o)
 .bss           0x001760ec        0x0 c:/devkitPro/portlibs/armv6k/lib\libpng.a(pngrutil.o)
 .bss           0x001760ec        0x0 c:/devkitPro/portlibs/armv6k/lib\libpng.a(pngset.o)
 .bss           0x001760ec        0x0 c:/devkitPro/portlibs/armv6k/lib\libpng.a(pngtrans.o)
 .bss           0x001760ec        0x0 c:/devkitPro/portlibs/armv6k/lib\libpng.a(pngwrite.o)
 .bss           0x001760ec        0x0 c:/devkitPro/portlibs/armv6k/lib\libpng.a(pngwtran.o)
 .bss           0x001760ec        0x0 c:/devkitPro/portlibs/armv6k/lib\libpng.a(pngwutil.o)
 .bss           0x001760ec        0x0 c:/devkitPro/portlibs/armv6k/lib\libpng.a(pngwio.o)
 .bss           0x001760ec        0x0 c:/devkitPro/portlibs/armv6k/lib\libz.a(adler32.o)
 .bss           0x001760ec        0x0 c:/devkitPro/portlibs/armv6k/lib\libz.a(crc32.o)
 .bss           0x001760ec        0x0 c:/devkitPro/portlibs/armv6k/lib\libz.a(deflate.o)
 .bss           0x001760ec        0x0 c:/devkitPro/portlibs/armv6k/lib\libz.a(inflate.o)
 .bss           0x001760ec        0x0 c:/devkitPro/portlibs/armv6k/lib\libz.a(inftrees.o)
 .bss           0x001760ec        0x0 c:/devkitPro/portlibs/armv6k/lib\libz.a(trees.o)
 .bss           0x001760ec        0x0 c:/devkitPro/portlibs/armv6k/lib\libz.a(zutil.o)
 .bss           0x001760ec        0x0 c:/devkitPro/portlibs/armv6k/lib\libz.a(inffast.o)
 *fill*         0x001760ec        0x4 
 .bss           0x001760f0       0xd8 c:/devkitPro/libctru/lib\libsf2d.a(sf2d.o)
 .bss           0x001761c8        0x0 c:/devkitPro/libctru/lib\libsf2d.a(sf2d_draw.o)
 .bss           0x001761c8        0x0 c:/devkitPro/libctru/lib\libsf2d.a(sf2d_private.o)
 .bss           0x001761c8        0x0 c:/devkitPro/libctru/lib\libsf2d.a(sf2d_texture.o)
 .bss           0x001761c8        0x0 c:/devkitPro/libctru/lib\libsf2d.a(shader.vsh.o)
 .bss           0x001761c8       0x14 c:/devkitPro/libctru/lib\libctru.a(linear.o)
 .bss           0x001761dc        0x0 c:/devkitPro/libctru/lib\libctru.a(mem_pool.o)
 .bss           0x001761dc       0x14 c:/devkitPro/libctru/lib\libctru.a(vram.o)
 .bss           0x001761f0        0xc c:/devkitPro/libctru/lib\libctru.a(gfx.o)
                0x001761f4                screenFree
 .bss           0x001761fc        0x0 c:/devkitPro/libctru/lib\libctru.a(os.o)
 .bss           0x001761fc      0x400 c:/devkitPro/libctru/lib\libctru.a(gpu.o)
 .bss           0x001765fc        0x0 c:/devkitPro/libctru/lib\libctru.a(gpuResetSequence.o)
 .bss           0x001765fc        0x0 c:/devkitPro/libctru/lib\libctru.a(shaderProgram.o)
 .bss           0x001765fc        0x0 c:/devkitPro/libctru/lib\libctru.a(shbin.o)
 .bss           0x001765fc       0x5c c:/devkitPro/libctru/lib\libctru.a(apt.o)
                0x00176600                aptStatusEvent
                0x00176610                aptStatus
                0x00176614                aptStatusPower
                0x00176618                aptSleepSync
                0x00176640                aptStatusBeforeSleep
 .bss           0x00176658        0xc c:/devkitPro/libctru/lib\libctru.a(gsp.o)
                0x00176660                gspGpuHandle
 .bss           0x00176664        0x0 c:/devkitPro/libctru/lib\libctru.a(gx.o)
 .bss           0x00176664       0x2c c:/devkitPro/libctru/lib\libctru.a(hid.o)
 .bss           0x00176690        0xc c:/devkitPro/libctru/lib\libctru.a(irrst.o)
 .bss           0x0017669c        0x0 c:/devkitPro/libctru/lib\libctru.a(rbtree_find.o)
 .bss           0x0017669c        0x0 c:/devkitPro/libctru/lib\libctru.a(rbtree_init.o)
 .bss           0x0017669c        0x0 c:/devkitPro/libctru/lib\libctru.a(rbtree_insert.o)
 .bss           0x0017669c        0x0 c:/devkitPro/libctru/lib\libctru.a(rbtree_remove.o)
 .bss           0x0017669c        0x0 c:/devkitPro/libctru/lib\libctru.a(rbtree_rotate.o)
 .bss           0x0017669c        0x0 c:/devkitPro/libctru/lib\libctru.a(allocateHeaps.o)
 .bss           0x0017669c        0x0 c:/devkitPro/libctru/lib\libctru.a(initArgv.o)
 .bss           0x0017669c        0x0 c:/devkitPro/libctru/lib\libctru.a(initSystem.o)
 .bss           0x0017669c        0x0 c:/devkitPro/libctru/lib\libctru.a(svc.o)
 .bss           0x0017669c        0x8 c:/devkitPro/libctru/lib\libctru.a(stack_adjust.o)
 .bss           0x001766a4        0x4 c:/devkitPro/libctru/lib\libctru.a(srv.o)
 .bss           0x001766a8        0x0 c:/devkitPro/libctru/lib\libctru.a(rbtree_iterator.o)
 .bss           0x001766a8        0x0 c:/devkitPro/libctru/lib\libctru.a(appExit.o)
 .bss           0x001766a8        0x0 c:/devkitPro/libctru/lib\libctru.a(appInit.o)
 .bss           0x001766a8        0x0 c:/devkitPro/libctru/lib\libctru.a(ctru_exit.o)
 .bss           0x001766a8     0x700c c:/devkitPro/libctru/lib\libctru.a(sdmc_dev.o)
 .bss           0x0017d6b4        0x8 c:/devkitPro/libctru/lib\libctru.a(fs.o)
 .bss           0x0017d6bc        0x0 c:/devkitPro/libctru/lib\libctru.a(decode_utf8.o)
 .bss           0x0017d6bc        0x0 c:/devkitPro/libctru/lib\libctru.a(utf16_to_utf8.o)
 .bss           0x0017d6bc        0x0 c:/devkitPro/libctru/lib\libctru.a(utf8_to_utf16.o)
 .bss           0x0017d6bc        0x0 c:/devkitPro/libctru/lib\libctru.a(decode_utf16.o)
 .bss           0x0017d6bc        0x0 c:/devkitPro/libctru/lib\libctru.a(encode_utf16.o)
 .bss           0x0017d6bc        0x0 c:/devkitPro/libctru/lib\libctru.a(encode_utf8.o)
 .bss           0x0017d6bc        0x0 c:/devkitpro/devkitarm/bin/../lib/gcc/arm-none-eabi/4.9.2/../../../../arm-none-eabi/lib/armv6k/fpu\libm.a(lib_a-sf_cos.o)
 .bss           0x0017d6bc        0x0 c:/devkitpro/devkitarm/bin/../lib/gcc/arm-none-eabi/4.9.2/../../../../arm-none-eabi/lib/armv6k/fpu\libm.a(lib_a-s_floor.o)
 .bss           0x0017d6bc        0x0 c:/devkitpro/devkitarm/bin/../lib/gcc/arm-none-eabi/4.9.2/../../../../arm-none-eabi/lib/armv6k/fpu\libm.a(lib_a-s_frexp.o)
 .bss           0x0017d6bc        0x0 c:/devkitpro/devkitarm/bin/../lib/gcc/arm-none-eabi/4.9.2/../../../../arm-none-eabi/lib/armv6k/fpu\libm.a(lib_a-sf_sin.o)
 .bss           0x0017d6bc        0x0 c:/devkitpro/devkitarm/bin/../lib/gcc/arm-none-eabi/4.9.2/../../../../arm-none-eabi/lib/armv6k/fpu\libm.a(lib_a-s_modf.o)
 .bss           0x0017d6bc        0x0 c:/devkitpro/devkitarm/bin/../lib/gcc/arm-none-eabi/4.9.2/../../../../arm-none-eabi/lib/armv6k/fpu\libm.a(lib_a-w_pow.o)
 .bss           0x0017d6bc        0x0 c:/devkitpro/devkitarm/bin/../lib/gcc/arm-none-eabi/4.9.2/../../../../arm-none-eabi/lib/armv6k/fpu\libm.a(lib_a-ef_rem_pio2.o)
 .bss           0x0017d6bc        0x0 c:/devkitpro/devkitarm/bin/../lib/gcc/arm-none-eabi/4.9.2/../../../../arm-none-eabi/lib/armv6k/fpu\libm.a(lib_a-e_pow.o)
 .bss           0x0017d6bc        0x0 c:/devkitpro/devkitarm/bin/../lib/gcc/arm-none-eabi/4.9.2/../../../../arm-none-eabi/lib/armv6k/fpu\libm.a(lib_a-e_sqrt.o)
 .bss           0x0017d6bc        0x0 c:/devkitpro/devkitarm/bin/../lib/gcc/arm-none-eabi/4.9.2/../../../../arm-none-eabi/lib/armv6k/fpu\libm.a(lib_a-kf_cos.o)
 .bss           0x0017d6bc        0x0 c:/devkitpro/devkitarm/bin/../lib/gcc/arm-none-eabi/4.9.2/../../../../arm-none-eabi/lib/armv6k/fpu\libm.a(lib_a-kf_rem_pio2.o)
 .bss           0x0017d6bc        0x0 c:/devkitpro/devkitarm/bin/../lib/gcc/arm-none-eabi/4.9.2/../../../../arm-none-eabi/lib/armv6k/fpu\libm.a(lib_a-kf_sin.o)
 .bss           0x0017d6bc        0x0 c:/devkitpro/devkitarm/bin/../lib/gcc/arm-none-eabi/4.9.2/../../../../arm-none-eabi/lib/armv6k/fpu\libm.a(lib_a-s_fabs.o)
 .bss           0x0017d6bc        0x0 c:/devkitpro/devkitarm/bin/../lib/gcc/arm-none-eabi/4.9.2/../../../../arm-none-eabi/lib/armv6k/fpu\libm.a(lib_a-sf_fabs.o)
 .bss           0x0017d6bc        0x0 c:/devkitpro/devkitarm/bin/../lib/gcc/arm-none-eabi/4.9.2/../../../../arm-none-eabi/lib/armv6k/fpu\libm.a(lib_a-sf_floor.o)
 .bss           0x0017d6bc        0x0 c:/devkitpro/devkitarm/bin/../lib/gcc/arm-none-eabi/4.9.2/../../../../arm-none-eabi/lib/armv6k/fpu\libm.a(lib_a-s_finite.o)
 .bss           0x0017d6bc        0x0 c:/devkitpro/devkitarm/bin/../lib/gcc/arm-none-eabi/4.9.2/../../../../arm-none-eabi/lib/armv6k/fpu\libm.a(lib_a-s_fpclassify.o)
 .bss           0x0017d6bc        0x0 c:/devkitpro/devkitarm/bin/../lib/gcc/arm-none-eabi/4.9.2/../../../../arm-none-eabi/lib/armv6k/fpu\libm.a(lib_a-sf_scalbn.o)
 .bss           0x0017d6bc        0x0 c:/devkitpro/devkitarm/bin/../lib/gcc/arm-none-eabi/4.9.2/../../../../arm-none-eabi/lib/armv6k/fpu\libm.a(lib_a-s_lib_ver.o)
 .bss           0x0017d6bc        0x0 c:/devkitpro/devkitarm/bin/../lib/gcc/arm-none-eabi/4.9.2/../../../../arm-none-eabi/lib/armv6k/fpu\libm.a(lib_a-s_matherr.o)
 .bss           0x0017d6bc        0x0 c:/devkitpro/devkitarm/bin/../lib/gcc/arm-none-eabi/4.9.2/../../../../arm-none-eabi/lib/armv6k/fpu\libm.a(lib_a-s_nan.o)
 .bss           0x0017d6bc        0x0 c:/devkitpro/devkitarm/bin/../lib/gcc/arm-none-eabi/4.9.2/../../../../arm-none-eabi/lib/armv6k/fpu\libm.a(lib_a-s_rint.o)
 .bss           0x0017d6bc        0x0 c:/devkitpro/devkitarm/bin/../lib/gcc/arm-none-eabi/4.9.2/../../../../arm-none-eabi/lib/armv6k/fpu\libm.a(lib_a-s_scalbn.o)
 .bss           0x0017d6bc        0x0 c:/devkitpro/devkitarm/bin/../lib/gcc/arm-none-eabi/4.9.2/../../../../arm-none-eabi/lib/armv6k/fpu\libm.a(lib_a-s_copysign.o)
 .bss           0x0017d6bc        0x0 c:/devkitpro/devkitarm/bin/../lib/gcc/arm-none-eabi/4.9.2/../../../../arm-none-eabi/lib/armv6k/fpu\libm.a(lib_a-sf_copysign.o)
 .bss           0x0017d6bc        0x0 c:/devkitpro/devkitarm/bin/../lib/gcc/arm-none-eabi/4.9.2/armv6k/fpu\libgcc.a(_udivsi3.o)
 .bss           0x0017d6bc        0x0 c:/devkitpro/devkitarm/bin/../lib/gcc/arm-none-eabi/4.9.2/armv6k/fpu\libgcc.a(_divsi3.o)
 .bss           0x0017d6bc        0x0 c:/devkitpro/devkitarm/bin/../lib/gcc/arm-none-eabi/4.9.2/armv6k/fpu\libgcc.a(_dvmd_tls.o)
 .bss           0x0017d6bc        0x0 c:/devkitpro/devkitarm/bin/../lib/gcc/arm-none-eabi/4.9.2/armv6k/fpu\libgcc.a(_arm_addsubsf3.o)
 .bss           0x0017d6bc        0x0 c:/devkitpro/devkitarm/bin/../lib/gcc/arm-none-eabi/4.9.2/../../../../arm-none-eabi/lib/armv6k/fpu\libg.a(lib_a-abort.o)
 .bss           0x0017d6bc        0x0 c:/devkitpro/devkitarm/bin/../lib/gcc/arm-none-eabi/4.9.2/../../../../arm-none-eabi/lib/armv6k/fpu\libg.a(lib_a-atof.o)
 .bss           0x0017d6bc        0x0 c:/devkitpro/devkitarm/bin/../lib/gcc/arm-none-eabi/4.9.2/../../../../arm-none-eabi/lib/armv6k/fpu\libg.a(lib_a-bsearch.o)
 .bss           0x0017d6bc        0x0 c:/devkitpro/devkitarm/bin/../lib/gcc/arm-none-eabi/4.9.2/../../../../arm-none-eabi/lib/armv6k/fpu\libg.a(lib_a-errno.o)
 .bss           0x0017d6bc        0x0 c:/devkitpro/devkitarm/bin/../lib/gcc/arm-none-eabi/4.9.2/../../../../arm-none-eabi/lib/armv6k/fpu\libg.a(lib_a-exit.o)
 .bss           0x0017d6bc        0x0 c:/devkitpro/devkitarm/bin/../lib/gcc/arm-none-eabi/4.9.2/../../../../arm-none-eabi/lib/armv6k/fpu\libg.a(lib_a-fclose.o)
 .bss           0x0017d6bc        0x0 c:/devkitpro/devkitarm/bin/../lib/gcc/arm-none-eabi/4.9.2/../../../../arm-none-eabi/lib/armv6k/fpu\libg.a(lib_a-fflush.o)
 .bss           0x0017d6bc        0x0 c:/devkitpro/devkitarm/bin/../lib/gcc/arm-none-eabi/4.9.2/../../../../arm-none-eabi/lib/armv6k/fpu\libg.a(lib_a-findfp.o)
 .bss           0x0017d6bc        0x0 c:/devkitpro/devkitarm/bin/../lib/gcc/arm-none-eabi/4.9.2/../../../../arm-none-eabi/lib/armv6k/fpu\libg.a(lib_a-fini.o)
 .bss           0x0017d6bc        0x0 c:/devkitpro/devkitarm/bin/../lib/gcc/arm-none-eabi/4.9.2/../../../../arm-none-eabi/lib/armv6k/fpu\libg.a(lib_a-fopen.o)
 .bss           0x0017d6bc        0x0 c:/devkitpro/devkitarm/bin/../lib/gcc/arm-none-eabi/4.9.2/../../../../arm-none-eabi/lib/armv6k/fpu\libg.a(lib_a-fprintf.o)
 .bss           0x0017d6bc        0x0 c:/devkitpro/devkitarm/bin/../lib/gcc/arm-none-eabi/4.9.2/../../../../arm-none-eabi/lib/armv6k/fpu\libg.a(lib_a-fputc.o)
 .bss           0x0017d6bc        0x0 c:/devkitpro/devkitarm/bin/../lib/gcc/arm-none-eabi/4.9.2/../../../../arm-none-eabi/lib/armv6k/fpu\libg.a(lib_a-fread.o)
 .bss           0x0017d6bc        0x0 c:/devkitpro/devkitarm/bin/../lib/gcc/arm-none-eabi/4.9.2/../../../../arm-none-eabi/lib/armv6k/fpu\libg.a(lib_a-freer.o)
 .bss           0x0017d6bc        0x0 c:/devkitpro/devkitarm/bin/../lib/gcc/arm-none-eabi/4.9.2/../../../../arm-none-eabi/lib/armv6k/fpu\libg.a(lib_a-fseek.o)
 .bss           0x0017d6bc        0x0 c:/devkitpro/devkitarm/bin/../lib/gcc/arm-none-eabi/4.9.2/../../../../arm-none-eabi/lib/armv6k/fpu\libg.a(lib_a-fseeko.o)
 .bss           0x0017d6bc        0x0 c:/devkitpro/devkitarm/bin/../lib/gcc/arm-none-eabi/4.9.2/../../../../arm-none-eabi/lib/armv6k/fpu\libg.a(lib_a-fwalk.o)
 .bss           0x0017d6bc        0x0 c:/devkitpro/devkitarm/bin/../lib/gcc/arm-none-eabi/4.9.2/../../../../arm-none-eabi/lib/armv6k/fpu\libg.a(lib_a-fwrite.o)
 .bss           0x0017d6bc        0x0 c:/devkitpro/devkitarm/bin/../lib/gcc/arm-none-eabi/4.9.2/../../../../arm-none-eabi/lib/armv6k/fpu\libg.a(lib_a-gmtime.o)
 .bss           0x0017d6bc        0x0 c:/devkitpro/devkitarm/bin/../lib/gcc/arm-none-eabi/4.9.2/../../../../arm-none-eabi/lib/armv6k/fpu\libg.a(lib_a-gmtime_r.o)
 .bss           0x0017d6bc        0x0 c:/devkitpro/devkitarm/bin/../lib/gcc/arm-none-eabi/4.9.2/../../../../arm-none-eabi/lib/armv6k/fpu\libg.a(lib_a-impure.o)
 .bss           0x0017d6bc        0x0 c:/devkitpro/devkitarm/bin/../lib/gcc/arm-none-eabi/4.9.2/../../../../arm-none-eabi/lib/armv6k/fpu\libg.a(lib_a-init.o)
 .bss           0x0017d6bc        0x0 c:/devkitpro/devkitarm/bin/../lib/gcc/arm-none-eabi/4.9.2/../../../../arm-none-eabi/lib/armv6k/fpu\libg.a(lib_a-makebuf.o)
 .bss           0x0017d6bc        0x0 c:/devkitpro/devkitarm/bin/../lib/gcc/arm-none-eabi/4.9.2/../../../../arm-none-eabi/lib/armv6k/fpu\libg.a(lib_a-malloc.o)
 .bss           0x0017d6bc        0x0 c:/devkitpro/devkitarm/bin/../lib/gcc/arm-none-eabi/4.9.2/../../../../arm-none-eabi/lib/armv6k/fpu\libg.a(lib_a-mallocr.o)
 .bss           0x0017d6bc        0x0 c:/devkitpro/devkitarm/bin/../lib/gcc/arm-none-eabi/4.9.2/../../../../arm-none-eabi/lib/armv6k/fpu\libg.a(lib_a-memcmp.o)
 .bss           0x0017d6bc        0x0 c:/devkitpro/devkitarm/bin/../lib/gcc/arm-none-eabi/4.9.2/../../../../arm-none-eabi/lib/armv6k/fpu\libg.a(lib_a-memcpy.o)
 .bss           0x0017d6bc        0x0 c:/devkitpro/devkitarm/bin/../lib/gcc/arm-none-eabi/4.9.2/../../../../arm-none-eabi/lib/armv6k/fpu\libg.a(lib_a-memset.o)
 .bss           0x0017d6bc        0x0 c:/devkitpro/devkitarm/bin/../lib/gcc/arm-none-eabi/4.9.2/../../../../arm-none-eabi/lib/armv6k/fpu\libg.a(lib_a-mlock.o)
 .bss           0x0017d6bc        0x0 c:/devkitpro/devkitarm/bin/../lib/gcc/arm-none-eabi/4.9.2/../../../../arm-none-eabi/lib/armv6k/fpu\libg.a(lib_a-month_lengths.o)
 .bss           0x0017d6bc        0x0 c:/devkitpro/devkitarm/bin/../lib/gcc/arm-none-eabi/4.9.2/../../../../arm-none-eabi/lib/armv6k/fpu\libg.a(lib_a-printf.o)
 .bss           0x0017d6bc        0x0 c:/devkitpro/devkitarm/bin/../lib/gcc/arm-none-eabi/4.9.2/../../../../arm-none-eabi/lib/armv6k/fpu\libg.a(lib_a-putchar.o)
 .bss           0x0017d6bc        0x0 c:/devkitpro/devkitarm/bin/../lib/gcc/arm-none-eabi/4.9.2/../../../../arm-none-eabi/lib/armv6k/fpu\libg.a(lib_a-putc.o)
 .bss           0x0017d6bc        0x0 c:/devkitpro/devkitarm/bin/../lib/gcc/arm-none-eabi/4.9.2/../../../../arm-none-eabi/lib/armv6k/fpu\libg.a(lib_a-rand.o)
 .bss           0x0017d6bc        0x0 c:/devkitpro/devkitarm/bin/../lib/gcc/arm-none-eabi/4.9.2/../../../../arm-none-eabi/lib/armv6k/fpu\libg.a(lib_a-realloc.o)
 .bss           0x0017d6bc        0x0 c:/devkitpro/devkitarm/bin/../lib/gcc/arm-none-eabi/4.9.2/../../../../arm-none-eabi/lib/armv6k/fpu\libg.a(lib_a-reallocr.o)
 .bss           0x0017d6bc        0x0 c:/devkitpro/devkitarm/bin/../lib/gcc/arm-none-eabi/4.9.2/../../../../arm-none-eabi/lib/armv6k/fpu\libg.a(lib_a-refill.o)
 .bss           0x0017d6bc        0x0 c:/devkitpro/devkitarm/bin/../lib/gcc/arm-none-eabi/4.9.2/../../../../arm-none-eabi/lib/armv6k/fpu\libg.a(lib_a-remove.o)
 .bss           0x0017d6bc        0x0 c:/devkitpro/devkitarm/bin/../lib/gcc/arm-none-eabi/4.9.2/../../../../arm-none-eabi/lib/armv6k/fpu\libg.a(lib_a-setjmp.o)
 .bss           0x0017d6bc        0x0 c:/devkitpro/devkitarm/bin/../lib/gcc/arm-none-eabi/4.9.2/../../../../arm-none-eabi/lib/armv6k/fpu\libg.a(lib_a-signal.o)
 .bss           0x0017d6bc        0x0 c:/devkitpro/devkitarm/bin/../lib/gcc/arm-none-eabi/4.9.2/../../../../arm-none-eabi/lib/armv6k/fpu\libg.a(lib_a-stdio.o)
 .bss           0x0017d6bc        0x0 c:/devkitpro/devkitarm/bin/../lib/gcc/arm-none-eabi/4.9.2/../../../../arm-none-eabi/lib/armv6k/fpu\libg.a(lib_a-strcmp.o)
 .bss           0x0017d6bc        0x0 c:/devkitpro/devkitarm/bin/../lib/gcc/arm-none-eabi/4.9.2/../../../../arm-none-eabi/lib/armv6k/fpu\libg.a(lib_a-strcpy.o)
 .bss           0x0017d6bc        0x0 c:/devkitpro/devkitarm/bin/../lib/gcc/arm-none-eabi/4.9.2/../../../../arm-none-eabi/lib/armv6k/fpu\libg.a(lib_a-strerror.o)
 .bss           0x0017d6bc        0x0 c:/devkitpro/devkitarm/bin/../lib/gcc/arm-none-eabi/4.9.2/../../../../arm-none-eabi/lib/armv6k/fpu\libg.a(lib_a-strlen.o)
 .bss           0x0017d6bc        0x0 c:/devkitpro/devkitarm/bin/../lib/gcc/arm-none-eabi/4.9.2/../../../../arm-none-eabi/lib/armv6k/fpu\libg.a(lib_a-strncat.o)
 .bss           0x0017d6bc        0x0 c:/devkitpro/devkitarm/bin/../lib/gcc/arm-none-eabi/4.9.2/../../../../arm-none-eabi/lib/armv6k/fpu\libg.a(lib_a-strncpy.o)
 .bss           0x0017d6bc        0x0 c:/devkitpro/devkitarm/bin/../lib/gcc/arm-none-eabi/4.9.2/../../../../arm-none-eabi/lib/armv6k/fpu\libg.a(lib_a-strtod.o)
 .bss           0x0017d6bc        0x0 c:/devkitpro/devkitarm/bin/../lib/gcc/arm-none-eabi/4.9.2/../../../../arm-none-eabi/lib/armv6k/fpu\libg.a(lib_a-time.o)
 .bss           0x0017d6bc        0x0 c:/devkitpro/devkitarm/bin/../lib/gcc/arm-none-eabi/4.9.2/../../../../arm-none-eabi/lib/armv6k/fpu\libg.a(lib_a-u_strerr.o)
 .bss           0x0017d6bc        0x0 c:/devkitpro/devkitarm/bin/../lib/gcc/arm-none-eabi/4.9.2/../../../../arm-none-eabi/lib/armv6k/fpu\libg.a(lib_a-vfprintf.o)
 .bss           0x0017d6bc        0x0 c:/devkitpro/devkitarm/bin/../lib/gcc/arm-none-eabi/4.9.2/../../../../arm-none-eabi/lib/armv6k/fpu\libg.a(lib_a-wbuf.o)
 .bss           0x0017d6bc        0x0 c:/devkitpro/devkitarm/bin/../lib/gcc/arm-none-eabi/4.9.2/../../../../arm-none-eabi/lib/armv6k/fpu\libg.a(lib_a-wcrtomb.o)
 .bss           0x0017d6bc        0x0 c:/devkitpro/devkitarm/bin/../lib/gcc/arm-none-eabi/4.9.2/../../../../arm-none-eabi/lib/armv6k/fpu\libg.a(lib_a-wcsrtombs.o)
 .bss           0x0017d6bc        0x0 c:/devkitpro/devkitarm/bin/../lib/gcc/arm-none-eabi/4.9.2/../../../../arm-none-eabi/lib/armv6k/fpu\libg.a(lib_a-wctomb_r.o)
 .bss           0x0017d6bc        0x0 c:/devkitpro/devkitarm/bin/../lib/gcc/arm-none-eabi/4.9.2/../../../../arm-none-eabi/lib/armv6k/fpu\libg.a(lib_a-wsetup.o)
 .bss           0x0017d6bc        0x0 c:/devkitpro/devkitarm/bin/../lib/gcc/arm-none-eabi/4.9.2/../../../../arm-none-eabi/lib/armv6k/fpu\libg.a(lib_a-__call_atexit.o)
 .bss           0x0017d6bc        0x0 c:/devkitpro/devkitarm/bin/../lib/gcc/arm-none-eabi/4.9.2/../../../../arm-none-eabi/lib/armv6k/fpu\libg.a(lib_a-dtoa.o)
 .bss           0x0017d6bc        0x0 c:/devkitpro/devkitarm/bin/../lib/gcc/arm-none-eabi/4.9.2/../../../../arm-none-eabi/lib/armv6k/fpu\libg.a(lib_a-flags.o)
 .bss           0x0017d6bc        0x0 c:/devkitpro/devkitarm/bin/../lib/gcc/arm-none-eabi/4.9.2/../../../../arm-none-eabi/lib/armv6k/fpu\libg.a(lib_a-fvwrite.o)
 .bss           0x0017d6bc        0x0 c:/devkitpro/devkitarm/bin/../lib/gcc/arm-none-eabi/4.9.2/../../../../arm-none-eabi/lib/armv6k/fpu\libg.a(lib_a-gdtoa-gethex.o)
 .bss           0x0017d6bc        0x0 c:/devkitpro/devkitarm/bin/../lib/gcc/arm-none-eabi/4.9.2/../../../../arm-none-eabi/lib/armv6k/fpu\libg.a(lib_a-gdtoa-hexnan.o)
 .bss           0x0017d6bc        0x0 c:/devkitpro/devkitarm/bin/../lib/gcc/arm-none-eabi/4.9.2/../../../../arm-none-eabi/lib/armv6k/fpu\libg.a(lib_a-locale.o)
 .bss           0x0017d6bc        0x0 c:/devkitpro/devkitarm/bin/../lib/gcc/arm-none-eabi/4.9.2/../../../../arm-none-eabi/lib/armv6k/fpu\libg.a(lib_a-mbtowc_r.o)
 .bss           0x0017d6bc        0x0 c:/devkitpro/devkitarm/bin/../lib/gcc/arm-none-eabi/4.9.2/../../../../arm-none-eabi/lib/armv6k/fpu\libg.a(lib_a-memchr.o)
 .bss           0x0017d6bc        0x0 c:/devkitpro/devkitarm/bin/../lib/gcc/arm-none-eabi/4.9.2/../../../../arm-none-eabi/lib/armv6k/fpu\libg.a(lib_a-memmove.o)
 .bss           0x0017d6bc        0x0 c:/devkitpro/devkitarm/bin/../lib/gcc/arm-none-eabi/4.9.2/../../../../arm-none-eabi/lib/armv6k/fpu\libg.a(lib_a-mprec.o)
 .bss           0x0017d6bc        0x0 c:/devkitpro/devkitarm/bin/../lib/gcc/arm-none-eabi/4.9.2/../../../../arm-none-eabi/lib/armv6k/fpu\libg.a(lib_a-sf_nan.o)
 .bss           0x0017d6bc        0x0 c:/devkitpro/devkitarm/bin/../lib/gcc/arm-none-eabi/4.9.2/../../../../arm-none-eabi/lib/armv6k/fpu\libg.a(lib_a-strcasecmp.o)
 .bss           0x0017d6bc        0x0 c:/devkitpro/devkitarm/bin/../lib/gcc/arm-none-eabi/4.9.2/../../../../arm-none-eabi/lib/armv6k/fpu\libg.a(lib_a-strcat.o)
 .bss           0x0017d6bc        0x0 c:/devkitpro/devkitarm/bin/../lib/gcc/arm-none-eabi/4.9.2/../../../../arm-none-eabi/lib/armv6k/fpu\libg.a(lib_a-strchr.o)
 .bss           0x0017d6bc        0x0 c:/devkitpro/devkitarm/bin/../lib/gcc/arm-none-eabi/4.9.2/../../../../arm-none-eabi/lib/armv6k/fpu\libg.a(lib_a-strlcpy.o)
 .bss           0x0017d6bc        0x0 c:/devkitpro/devkitarm/bin/../lib/gcc/arm-none-eabi/4.9.2/../../../../arm-none-eabi/lib/armv6k/fpu\libg.a(lib_a-strncasecmp.o)
 .bss           0x0017d6bc        0x0 c:/devkitpro/devkitarm/bin/../lib/gcc/arm-none-eabi/4.9.2/../../../../arm-none-eabi/lib/armv6k/fpu\libg.a(lib_a-strncmp.o)
 .bss           0x0017d6bc        0x0 c:/devkitpro/devkitarm/bin/../lib/gcc/arm-none-eabi/4.9.2/../../../../arm-none-eabi/lib/armv6k/fpu\libg.a(lib_a-strtol.o)
 .bss           0x0017d6bc        0x0 c:/devkitpro/devkitarm/bin/../lib/gcc/arm-none-eabi/4.9.2/../../../../arm-none-eabi/lib/armv6k/fpu\libg.a(lib_a-svfiprintf.o)
 .bss           0x0017d6bc        0x0 c:/devkitpro/devkitarm/bin/../lib/gcc/arm-none-eabi/4.9.2/../../../../arm-none-eabi/lib/armv6k/fpu\libg.a(lib_a-vfiprintf.o)
 .bss           0x0017d6bc        0x0 c:/devkitpro/devkitarm/bin/../lib/gcc/arm-none-eabi/4.9.2/../../../../arm-none-eabi/lib/armv6k/fpu\libg.a(lib_a-wcsnrtombs.o)
 .bss           0x0017d6bc        0x0 c:/devkitpro/devkitarm/bin/../lib/gcc/arm-none-eabi/4.9.2/../../../../arm-none-eabi/lib/armv6k/fpu\libg.a(lib_a-callocr.o)
 .bss           0x0017d6bc        0x0 c:/devkitpro/devkitarm/bin/../lib/gcc/arm-none-eabi/4.9.2/../../../../arm-none-eabi/lib/armv6k/fpu\libg.a(lib_a-ctype_.o)
 .bss           0x0017d6bc        0x0 c:/devkitpro/devkitarm/bin/../lib/gcc/arm-none-eabi/4.9.2/../../../../arm-none-eabi/lib/armv6k/fpu\libg.a(lib_a-fputwc.o)
 .bss           0x0017d6bc        0x0 c:/devkitpro/devkitarm/bin/../lib/gcc/arm-none-eabi/4.9.2/../../../../arm-none-eabi/lib/armv6k/fpu\libg.a(lib_a-getenv_r.o)
 .bss           0x0017d6bc        0x0 c:/devkitpro/devkitarm/bin/../lib/gcc/arm-none-eabi/4.9.2/../../../../arm-none-eabi/lib/armv6k/fpu\libg.a(lib_a-environ.o)
 .bss           0x0017d6bc        0x0 c:/devkitpro/devkitarm/bin/../lib/gcc/arm-none-eabi/4.9.2/../../../../arm-none-eabi/lib/armv6k/fpu\libg.a(lib_a-envlock.o)
 .bss           0x0017d6bc        0x0 c:/devkitpro/devkitarm/bin/../lib/gcc/arm-none-eabi/4.9.2/../../../../arm-none-eabi/lib/armv6k/fpu\libsysbase.a(iosupport.o)
 .bss           0x0017d6bc        0x0 c:/devkitpro/devkitarm/bin/../lib/gcc/arm-none-eabi/4.9.2/../../../../arm-none-eabi/lib/armv6k/fpu\libsysbase.a(close.o)
 .bss           0x0017d6bc        0x0 c:/devkitpro/devkitarm/bin/../lib/gcc/arm-none-eabi/4.9.2/../../../../arm-none-eabi/lib/armv6k/fpu\libsysbase.a(fstat.o)
 .bss           0x0017d6bc        0x0 c:/devkitpro/devkitarm/bin/../lib/gcc/arm-none-eabi/4.9.2/../../../../arm-none-eabi/lib/armv6k/fpu\libsysbase.a(getpid.o)
 .bss           0x0017d6bc        0x0 c:/devkitpro/devkitarm/bin/../lib/gcc/arm-none-eabi/4.9.2/../../../../arm-none-eabi/lib/armv6k/fpu\libsysbase.a(gettod.o)
 .bss           0x0017d6bc        0x0 c:/devkitpro/devkitarm/bin/../lib/gcc/arm-none-eabi/4.9.2/../../../../arm-none-eabi/lib/armv6k/fpu\libsysbase.a(isatty.o)
 .bss           0x0017d6bc        0x0 c:/devkitpro/devkitarm/bin/../lib/gcc/arm-none-eabi/4.9.2/../../../../arm-none-eabi/lib/armv6k/fpu\libsysbase.a(kill.o)
 .bss           0x0017d6bc        0x0 c:/devkitpro/devkitarm/bin/../lib/gcc/arm-none-eabi/4.9.2/../../../../arm-none-eabi/lib/armv6k/fpu\libsysbase.a(lseek.o)
 .bss           0x0017d6bc        0x0 c:/devkitpro/devkitarm/bin/../lib/gcc/arm-none-eabi/4.9.2/../../../../arm-none-eabi/lib/armv6k/fpu\libsysbase.a(open.o)
 .bss           0x0017d6bc        0x0 c:/devkitpro/devkitarm/bin/../lib/gcc/arm-none-eabi/4.9.2/../../../../arm-none-eabi/lib/armv6k/fpu\libsysbase.a(read.o)
 .bss           0x0017d6bc        0x4 c:/devkitpro/devkitarm/bin/../lib/gcc/arm-none-eabi/4.9.2/../../../../arm-none-eabi/lib/armv6k/fpu\libsysbase.a(sbrk.o)
 .bss           0x0017d6c0        0x0 c:/devkitpro/devkitarm/bin/../lib/gcc/arm-none-eabi/4.9.2/../../../../arm-none-eabi/lib/armv6k/fpu\libsysbase.a(unlink.o)
 .bss           0x0017d6c0        0x0 c:/devkitpro/devkitarm/bin/../lib/gcc/arm-none-eabi/4.9.2/../../../../arm-none-eabi/lib/armv6k/fpu\libsysbase.a(write.o)
 .bss           0x0017d6c0        0x0 c:/devkitpro/devkitarm/bin/../lib/gcc/arm-none-eabi/4.9.2/../../../../arm-none-eabi/lib/armv6k/fpu\libsysbase.a(_exit.o)
 .bss           0x0017d6c0        0x8 c:/devkitpro/devkitarm/bin/../lib/gcc/arm-none-eabi/4.9.2/../../../../arm-none-eabi/lib/armv6k/fpu\libsysbase.a(malloc_vars.o)
                0x0017d6c0                fake_heap_start
                0x0017d6c4                fake_heap_end
 .bss           0x0017d6c8     0x1000 c:/devkitpro/devkitarm/bin/../lib/gcc/arm-none-eabi/4.9.2/../../../../arm-none-eabi/lib/armv6k/fpu\libsysbase.a(chdir.o)
 .bss           0x0017e6c8        0x0 c:/devkitpro/devkitarm/bin/../lib/gcc/arm-none-eabi/4.9.2/../../../../arm-none-eabi/lib/armv6k/fpu\libsysbase.a(flock.o)
 .bss           0x0017e6c8       0x40 c:/devkitpro/devkitarm/bin/../lib/gcc/arm-none-eabi/4.9.2/../../../../arm-none-eabi/lib/armv6k/fpu\libsysbase.a(syscall_support.o)
                0x0017e6c8                __syscalls
 .bss           0x0017e708        0x0 c:/devkitpro/devkitarm/bin/../lib/gcc/arm-none-eabi/4.9.2/../../../../arm-none-eabi/lib/armv6k/fpu\libsysbase.a(handle_manager.o)
 .bss           0x0017e708        0x0 c:/devkitpro/devkitarm/bin/../lib/gcc/arm-none-eabi/4.9.2/../../../../arm-none-eabi/lib/armv6k/fpu\libsysbase.a(getreent.o)
 .bss           0x0017e708        0x0 c:/devkitpro/devkitarm/bin/../lib/gcc/arm-none-eabi/4.9.2/armv6k/fpu\libgcc.a(_aeabi_uldivmod.o)
 .bss           0x0017e708        0x0 c:/devkitpro/devkitarm/bin/../lib/gcc/arm-none-eabi/4.9.2/armv6k/fpu\libgcc.a(bpabi.o)
 .bss           0x0017e708        0x0 c:/devkitpro/devkitarm/bin/../lib/gcc/arm-none-eabi/4.9.2/armv6k/fpu\libgcc.a(_divdi3.o)
 .bss           0x0017e708        0x0 c:/devkitpro/devkitarm/bin/../lib/gcc/arm-none-eabi/4.9.2/armv6k/fpu\libgcc.a(_udivdi3.o)
 .bss           0x0017e708        0x0 c:/devkitpro/devkitarm/bin/../lib/gcc/arm-none-eabi/4.9.2/../../../../arm-none-eabi/lib/armv6k/fpu\libg.a(lib_a-strnlen.o)
 .bss           0x0017e708        0x0 c:/devkitpro/devkitarm/bin/../lib/gcc/arm-none-eabi/4.9.2/../../../../arm-none-eabi/lib/armv6k/fpu\libg.a(lib_a-strrchr.o)
 .bss           0x0017e708        0x0 c:/devkitpro/devkitarm/bin/../lib/gcc/arm-none-eabi/4.9.2/armv6k/fpu/crtend.o
 .bss           0x0017e708        0x0 c:/devkitpro/devkitarm/bin/../lib/gcc/arm-none-eabi/4.9.2/armv6k/fpu/crtn.o
 *(.bss.*)
 .bss.__malloc_max_total_mem
                0x0017e708        0x4 c:/devkitpro/devkitarm/bin/../lib/gcc/arm-none-eabi/4.9.2/../../../../arm-none-eabi/lib/armv6k/fpu\libg.a(lib_a-mallocr.o)
                0x0017e708                __malloc_max_total_mem
 .bss.__malloc_max_sbrked_mem
                0x0017e70c        0x4 c:/devkitpro/devkitarm/bin/../lib/gcc/arm-none-eabi/4.9.2/../../../../arm-none-eabi/lib/armv6k/fpu\libg.a(lib_a-mallocr.o)
                0x0017e70c                __malloc_max_sbrked_mem
 .bss.__malloc_top_pad
                0x0017e710        0x4 c:/devkitpro/devkitarm/bin/../lib/gcc/arm-none-eabi/4.9.2/../../../../arm-none-eabi/lib/armv6k/fpu\libg.a(lib_a-mallocr.o)
                0x0017e710                __malloc_top_pad
 .bss.__malloc_current_mallinfo
                0x0017e714       0x28 c:/devkitpro/devkitarm/bin/../lib/gcc/arm-none-eabi/4.9.2/../../../../arm-none-eabi/lib/armv6k/fpu\libg.a(lib_a-mallocr.o)
                0x0017e714                __malloc_current_mallinfo
 .bss._PathLocale
                0x0017e73c        0x4 c:/devkitpro/devkitarm/bin/../lib/gcc/arm-none-eabi/4.9.2/../../../../arm-none-eabi/lib/armv6k/fpu\libg.a(lib_a-locale.o)
                0x0017e73c                _PathLocale
 .bss.__nlocale_changed
                0x0017e740        0x4 c:/devkitpro/devkitarm/bin/../lib/gcc/arm-none-eabi/4.9.2/../../../../arm-none-eabi/lib/armv6k/fpu\libg.a(lib_a-locale.o)
                0x0017e740                __nlocale_changed
 .bss.__mlocale_changed
                0x0017e744        0x4 c:/devkitpro/devkitarm/bin/../lib/gcc/arm-none-eabi/4.9.2/../../../../arm-none-eabi/lib/armv6k/fpu\libg.a(lib_a-locale.o)
                0x0017e744                __mlocale_changed
 .bss.lc_ctype_cjk_lang
                0x0017e748        0x4 c:/devkitpro/devkitarm/bin/../lib/gcc/arm-none-eabi/4.9.2/../../../../arm-none-eabi/lib/armv6k/fpu\libg.a(lib_a-locale.o)
 .bss.new_categories
                0x0017e74c       0xe0 c:/devkitpro/devkitarm/bin/../lib/gcc/arm-none-eabi/4.9.2/../../../../arm-none-eabi/lib/armv6k/fpu\libg.a(lib_a-locale.o)
 .bss.current_locale_string
                0x0017e82c       0xe8 c:/devkitpro/devkitarm/bin/../lib/gcc/arm-none-eabi/4.9.2/../../../../arm-none-eabi/lib/armv6k/fpu\libg.a(lib_a-locale.o)
 .bss.saved_categories
                0x0017e914       0xe0 c:/devkitpro/devkitarm/bin/../lib/gcc/arm-none-eabi/4.9.2/../../../../arm-none-eabi/lib/armv6k/fpu\libg.a(lib_a-locale.o)
 .bss.initial_env
                0x0017e9f4        0x4 c:/devkitpro/devkitarm/bin/../lib/gcc/arm-none-eabi/4.9.2/../../../../arm-none-eabi/lib/armv6k/fpu\libg.a(lib_a-environ.o)
 *(.gnu.linkonce.b*)
 *(COMMON)
 COMMON         0x0017e9f8       0x60 c:/devkitPro/libctru/lib\libctru.a(gfx.o)
                0x0017e9f8                gfxBottomFramebuffers
                0x0017ea00                gspSharedMemHandle
                0x0017ea04                bottomFramebufferInfo
                0x0017ea20                gspEvent
                0x0017ea24                gfxTopLeftFramebuffers
                0x0017ea2c                gfxTopRightFramebuffers
                0x0017ea34                topFramebufferInfo
                0x0017ea50                gfxThreadID
                0x0017ea54                gfxSharedMemory
 COMMON         0x0017ea58        0xc c:/devkitPro/libctru/lib\libctru.a(gpu.o)
                0x0017ea58                gpuCmdBuf
                0x0017ea5c                gpuCmdBufOffset
                0x0017ea60                gpuCmdBufSize
 *fill*         0x0017ea64        0x4 
 COMMON         0x0017ea68     0x2022 c:/devkitPro/libctru/lib\libctru.a(apt.o)
                0x0017ea68                aptEventHandlerThread
                0x0017ea6c                aptParameters
                0x0017fa70                aptEventHandlerStack
                0x00180a70                aptuHandle
                0x00180a74                aptEvents
                0x00180a80                aptStatusMutex
                0x00180a84                aptLockHandle
                0x00180a88                currentAppId
 *fill*         0x00180a8a        0x6 
 COMMON         0x00180a90     0x103d c:/devkitPro/libctru/lib\libctru.a(gsp.o)
                0x00180a90                gspEventStack
                0x00181a90                gspEventThread
                0x00181a94                gspEventCounts
                0x00181ab0                gspEvents
                0x00181acc                gspRunEvents
 *fill*         0x00181acd        0x3 
 COMMON         0x00181ad0        0x4 c:/devkitPro/libctru/lib\libctru.a(gx.o)
                0x00181ad0                gxCmdBuf
 COMMON         0x00181ad4       0x20 c:/devkitPro/libctru/lib\libctru.a(hid.o)
                0x00181ad4                hidMemHandle
                0x00181ad8                hidHandle
                0x00181adc                hidSharedMem
                0x00181ae0                hidEvents
 COMMON         0x00181af4       0x10 c:/devkitPro/libctru/lib\libctru.a(irrst.o)
                0x00181af4                irrstHandle
                0x00181af8                irrstEvent
                0x00181afc                irrstMemHandle
                0x00181b00                irrstSharedMem
 COMMON         0x00181b04        0x8 c:/devkitPro/libctru/lib\libctru.a(allocateHeaps.o)
                0x00181b04                __heapBase
                0x00181b08                __linear_heap
 COMMON         0x00181b0c        0x8 c:/devkitPro/libctru/lib\libctru.a(initArgv.o)
                0x00181b0c                __system_argv
                0x00181b10                __system_argc
 COMMON         0x00181b14        0x4 c:/devkitPro/libctru/lib\libctru.a(initSystem.o)
                0x00181b14                __system_retAddr
                0x00181b18                . = ALIGN (0x4)
                0x00181b18                __bss_end__ = .
                0x00181b18                __end__ = ABSOLUTE (.)

/DISCARD/
 *(.group .comment .note)

.stab
 *(.stab)

.stabstr
 *(.stabstr)

.stab.excl
 *(.stab.excl)

.stab.exclstr
 *(.stab.exclstr)

.stab.index
 *(.stab.index)

.stab.indexstr
 *(.stab.indexstr)

.debug
 *(.debug)

.line
 *(.line)

.debug_srcinfo
 *(.debug_srcinfo)

.debug_sfnames
 *(.debug_sfnames)

.debug_aranges  0x00000000      0x5c0
 *(.debug_aranges)
 .debug_aranges
                0x00000000       0x20 gfx.o
 .debug_aranges
                0x00000020       0x28 main.o
 .debug_aranges
                0x00000048       0x20 mylib.o
 .debug_aranges
                0x00000068       0x20 sudoku.o
 .debug_aranges
                0x00000088       0x20 c:/devkitPro/libctru/lib\libsfil.a(sfil_png.o)
 .debug_aranges
                0x000000a8       0x20 c:/devkitPro/libctru/lib\libsf2d.a(sf2d.o)
 .debug_aranges
                0x000000c8       0x20 c:/devkitPro/libctru/lib\libsf2d.a(sf2d_draw.o)
 .debug_aranges
                0x000000e8       0x20 c:/devkitPro/libctru/lib\libsf2d.a(sf2d_private.o)
 .debug_aranges
                0x00000108       0x20 c:/devkitPro/libctru/lib\libsf2d.a(sf2d_texture.o)
 .debug_aranges
                0x00000128       0x20 c:/devkitPro/libctru/lib\libctru.a(linear.o)
 .debug_aranges
                0x00000148       0x20 c:/devkitPro/libctru/lib\libctru.a(mem_pool.o)
 .debug_aranges
                0x00000168       0x20 c:/devkitPro/libctru/lib\libctru.a(vram.o)
 .debug_aranges
                0x00000188       0x20 c:/devkitPro/libctru/lib\libctru.a(gfx.o)
 .debug_aranges
                0x000001a8       0x20 c:/devkitPro/libctru/lib\libctru.a(os.o)
 .debug_aranges
                0x000001c8       0x20 c:/devkitPro/libctru/lib\libctru.a(gpu.o)
 .debug_aranges
                0x000001e8       0x18 c:/devkitPro/libctru/lib\libctru.a(gpuResetSequence.o)
 .debug_aranges
                0x00000200       0x20 c:/devkitPro/libctru/lib\libctru.a(shaderProgram.o)
 .debug_aranges
                0x00000220       0x20 c:/devkitPro/libctru/lib\libctru.a(shbin.o)
 .debug_aranges
                0x00000240       0x20 c:/devkitPro/libctru/lib\libctru.a(apt.o)
 .debug_aranges
                0x00000260       0x20 c:/devkitPro/libctru/lib\libctru.a(gsp.o)
 .debug_aranges
                0x00000280       0x20 c:/devkitPro/libctru/lib\libctru.a(gx.o)
 .debug_aranges
                0x000002a0       0x20 c:/devkitPro/libctru/lib\libctru.a(hid.o)
 .debug_aranges
                0x000002c0       0x20 c:/devkitPro/libctru/lib\libctru.a(irrst.o)
 .debug_aranges
                0x000002e0       0x20 c:/devkitPro/libctru/lib\libctru.a(rbtree_find.o)
 .debug_aranges
                0x00000300       0x20 c:/devkitPro/libctru/lib\libctru.a(rbtree_init.o)
 .debug_aranges
                0x00000320       0x20 c:/devkitPro/libctru/lib\libctru.a(rbtree_insert.o)
 .debug_aranges
                0x00000340       0x20 c:/devkitPro/libctru/lib\libctru.a(rbtree_remove.o)
 .debug_aranges
                0x00000360       0x20 c:/devkitPro/libctru/lib\libctru.a(rbtree_rotate.o)
 .debug_aranges
                0x00000380       0x20 c:/devkitPro/libctru/lib\libctru.a(allocateHeaps.o)
 .debug_aranges
                0x000003a0       0x20 c:/devkitPro/libctru/lib\libctru.a(initArgv.o)
 .debug_aranges
                0x000003c0       0x20 c:/devkitPro/libctru/lib\libctru.a(initSystem.o)
 .debug_aranges
                0x000003e0       0x20 c:/devkitPro/libctru/lib\libctru.a(svc.o)
 .debug_aranges
                0x00000400       0x20 c:/devkitPro/libctru/lib\libctru.a(stack_adjust.o)
 .debug_aranges
                0x00000420       0x20 c:/devkitPro/libctru/lib\libctru.a(srv.o)
 .debug_aranges
                0x00000440       0x20 c:/devkitPro/libctru/lib\libctru.a(rbtree_iterator.o)
 .debug_aranges
                0x00000460       0x20 c:/devkitPro/libctru/lib\libctru.a(appExit.o)
 .debug_aranges
                0x00000480       0x20 c:/devkitPro/libctru/lib\libctru.a(appInit.o)
 .debug_aranges
                0x000004a0       0x20 c:/devkitPro/libctru/lib\libctru.a(ctru_exit.o)
 .debug_aranges
                0x000004c0       0x20 c:/devkitPro/libctru/lib\libctru.a(sdmc_dev.o)
 .debug_aranges
                0x000004e0       0x20 c:/devkitPro/libctru/lib\libctru.a(fs.o)
 .debug_aranges
                0x00000500       0x20 c:/devkitPro/libctru/lib\libctru.a(decode_utf8.o)
 .debug_aranges
                0x00000520       0x20 c:/devkitPro/libctru/lib\libctru.a(utf16_to_utf8.o)
 .debug_aranges
                0x00000540       0x20 c:/devkitPro/libctru/lib\libctru.a(utf8_to_utf16.o)
 .debug_aranges
                0x00000560       0x20 c:/devkitPro/libctru/lib\libctru.a(decode_utf16.o)
 .debug_aranges
                0x00000580       0x20 c:/devkitPro/libctru/lib\libctru.a(encode_utf16.o)
 .debug_aranges
                0x000005a0       0x20 c:/devkitPro/libctru/lib\libctru.a(encode_utf8.o)

.debug_pubnames
 *(.debug_pubnames)

.debug_info     0x00000000    0x1e31e
 *(.debug_info)
 .debug_info    0x00000000      0x4d1 gfx.o
 .debug_info    0x000004d1      0x671 main.o
 .debug_info    0x00000b42      0xb1f mylib.o
 .debug_info    0x00001661      0x8fb sudoku.o
 .debug_info    0x00001f5c     0x1443 c:/devkitPro/libctru/lib\libsfil.a(sfil_png.o)
 .debug_info    0x0000339f     0x17d0 c:/devkitPro/libctru/lib\libsf2d.a(sf2d.o)
 .debug_info    0x00004b6f      0xa31 c:/devkitPro/libctru/lib\libsf2d.a(sf2d_draw.o)
 .debug_info    0x000055a0      0x7c2 c:/devkitPro/libctru/lib\libsf2d.a(sf2d_private.o)
 .debug_info    0x00005d62     0x3422 c:/devkitPro/libctru/lib\libsf2d.a(sf2d_texture.o)
 .debug_info    0x00009184      0x975 c:/devkitPro/libctru/lib\libctru.a(linear.o)
 .debug_info    0x00009af9      0x8ed c:/devkitPro/libctru/lib\libctru.a(mem_pool.o)
 .debug_info    0x0000a3e6      0x95f c:/devkitPro/libctru/lib\libctru.a(vram.o)
 .debug_info    0x0000ad45      0xd7a c:/devkitPro/libctru/lib\libctru.a(gfx.o)
 .debug_info    0x0000babf      0xc28 c:/devkitPro/libctru/lib\libctru.a(os.o)
 .debug_info    0x0000c6e7     0x28dc c:/devkitPro/libctru/lib\libctru.a(gpu.o)
 .debug_info    0x0000efc3       0xbb c:/devkitPro/libctru/lib\libctru.a(gpuResetSequence.o)
 .debug_info    0x0000f07e      0xc8d c:/devkitPro/libctru/lib\libctru.a(shaderProgram.o)
 .debug_info    0x0000fd0b      0x6ef c:/devkitPro/libctru/lib\libctru.a(shbin.o)
 .debug_info    0x000103fa     0x36a8 c:/devkitPro/libctru/lib\libctru.a(apt.o)
 .debug_info    0x00013aa2     0x1179 c:/devkitPro/libctru/lib\libctru.a(gsp.o)
 .debug_info    0x00014c1b      0x4e7 c:/devkitPro/libctru/lib\libctru.a(gx.o)
 .debug_info    0x00015102      0xe22 c:/devkitPro/libctru/lib\libctru.a(hid.o)
 .debug_info    0x00015f24      0x779 c:/devkitPro/libctru/lib\libctru.a(irrst.o)
 .debug_info    0x0001669d      0x1c9 c:/devkitPro/libctru/lib\libctru.a(rbtree_find.o)
 .debug_info    0x00016866      0x178 c:/devkitPro/libctru/lib\libctru.a(rbtree_init.o)
 .debug_info    0x000169de      0x60c c:/devkitPro/libctru/lib\libctru.a(rbtree_insert.o)
 .debug_info    0x00016fea      0x838 c:/devkitPro/libctru/lib\libctru.a(rbtree_remove.o)
 .debug_info    0x00017822      0x2ec c:/devkitPro/libctru/lib\libctru.a(rbtree_rotate.o)
 .debug_info    0x00017b0e      0x269 c:/devkitPro/libctru/lib\libctru.a(allocateHeaps.o)
 .debug_info    0x00017d77      0x165 c:/devkitPro/libctru/lib\libctru.a(initArgv.o)
 .debug_info    0x00017edc      0xacb c:/devkitPro/libctru/lib\libctru.a(initSystem.o)
 .debug_info    0x000189a7       0x63 c:/devkitPro/libctru/lib\libctru.a(svc.o)
 .debug_info    0x00018a0a       0x73 c:/devkitPro/libctru/lib\libctru.a(stack_adjust.o)
 .debug_info    0x00018a7d      0x828 c:/devkitPro/libctru/lib\libctru.a(srv.o)
 .debug_info    0x000192a5      0x2a3 c:/devkitPro/libctru/lib\libctru.a(rbtree_iterator.o)
 .debug_info    0x00019548      0x11b c:/devkitPro/libctru/lib\libctru.a(appExit.o)
 .debug_info    0x00019663      0x15c c:/devkitPro/libctru/lib\libctru.a(appInit.o)
 .debug_info    0x000197bf      0x26e c:/devkitPro/libctru/lib\libctru.a(ctru_exit.o)
 .debug_info    0x00019a2d     0x29f7 c:/devkitPro/libctru/lib\libctru.a(sdmc_dev.o)
 .debug_info    0x0001c424     0x1706 c:/devkitPro/libctru/lib\libctru.a(fs.o)
 .debug_info    0x0001db2a      0x13c c:/devkitPro/libctru/lib\libctru.a(decode_utf8.o)
 .debug_info    0x0001dc66      0x1d9 c:/devkitPro/libctru/lib\libctru.a(utf16_to_utf8.o)
 .debug_info    0x0001de3f      0x1d9 c:/devkitPro/libctru/lib\libctru.a(utf8_to_utf16.o)
 .debug_info    0x0001e018      0x11c c:/devkitPro/libctru/lib\libctru.a(decode_utf16.o)
 .debug_info    0x0001e134       0xf5 c:/devkitPro/libctru/lib\libctru.a(encode_utf16.o)
 .debug_info    0x0001e229       0xf5 c:/devkitPro/libctru/lib\libctru.a(encode_utf8.o)

.debug_abbrev   0x00000000     0x59ad
 *(.debug_abbrev)
 .debug_abbrev  0x00000000      0x1c0 gfx.o
 .debug_abbrev  0x000001c0      0x219 main.o
 .debug_abbrev  0x000003d9      0x2ab mylib.o
 .debug_abbrev  0x00000684      0x21c sudoku.o
 .debug_abbrev  0x000008a0      0x2dd c:/devkitPro/libctru/lib\libsfil.a(sfil_png.o)
 .debug_abbrev  0x00000b7d      0x3ed c:/devkitPro/libctru/lib\libsf2d.a(sf2d.o)
 .debug_abbrev  0x00000f6a      0x1a2 c:/devkitPro/libctru/lib\libsf2d.a(sf2d_draw.o)
 .debug_abbrev  0x0000110c      0x228 c:/devkitPro/libctru/lib\libsf2d.a(sf2d_private.o)
 .debug_abbrev  0x00001334      0x3ff c:/devkitPro/libctru/lib\libsf2d.a(sf2d_texture.o)
 .debug_abbrev  0x00001733      0x30f c:/devkitPro/libctru/lib\libctru.a(linear.o)
 .debug_abbrev  0x00001a42      0x286 c:/devkitPro/libctru/lib\libctru.a(mem_pool.o)
 .debug_abbrev  0x00001cc8      0x2fe c:/devkitPro/libctru/lib\libctru.a(vram.o)
 .debug_abbrev  0x00001fc6      0x320 c:/devkitPro/libctru/lib\libctru.a(gfx.o)
 .debug_abbrev  0x000022e6      0x2cd c:/devkitPro/libctru/lib\libctru.a(os.o)
 .debug_abbrev  0x000025b3      0x37c c:/devkitPro/libctru/lib\libctru.a(gpu.o)
 .debug_abbrev  0x0000292f       0x61 c:/devkitPro/libctru/lib\libctru.a(gpuResetSequence.o)
 .debug_abbrev  0x00002990      0x25f c:/devkitPro/libctru/lib\libctru.a(shaderProgram.o)
 .debug_abbrev  0x00002bef      0x246 c:/devkitPro/libctru/lib\libctru.a(shbin.o)
 .debug_abbrev  0x00002e35      0x4aa c:/devkitPro/libctru/lib\libctru.a(apt.o)
 .debug_abbrev  0x000032df      0x393 c:/devkitPro/libctru/lib\libctru.a(gsp.o)
 .debug_abbrev  0x00003672       0xf9 c:/devkitPro/libctru/lib\libctru.a(gx.o)
 .debug_abbrev  0x0000376b      0x35f c:/devkitPro/libctru/lib\libctru.a(hid.o)
 .debug_abbrev  0x00003aca      0x2b5 c:/devkitPro/libctru/lib\libctru.a(irrst.o)
 .debug_abbrev  0x00003d7f       0xec c:/devkitPro/libctru/lib\libctru.a(rbtree_find.o)
 .debug_abbrev  0x00003e6b       0xb0 c:/devkitPro/libctru/lib\libctru.a(rbtree_init.o)
 .debug_abbrev  0x00003f1b      0x21d c:/devkitPro/libctru/lib\libctru.a(rbtree_insert.o)
 .debug_abbrev  0x00004138      0x205 c:/devkitPro/libctru/lib\libctru.a(rbtree_remove.o)
 .debug_abbrev  0x0000433d      0x170 c:/devkitPro/libctru/lib\libctru.a(rbtree_rotate.o)
 .debug_abbrev  0x000044ad       0xea c:/devkitPro/libctru/lib\libctru.a(allocateHeaps.o)
 .debug_abbrev  0x00004597       0xdb c:/devkitPro/libctru/lib\libctru.a(initArgv.o)
 .debug_abbrev  0x00004672      0x1f4 c:/devkitPro/libctru/lib\libctru.a(initSystem.o)
 .debug_abbrev  0x00004866       0x14 c:/devkitPro/libctru/lib\libctru.a(svc.o)
 .debug_abbrev  0x0000487a       0x14 c:/devkitPro/libctru/lib\libctru.a(stack_adjust.o)
 .debug_abbrev  0x0000488e      0x26d c:/devkitPro/libctru/lib\libctru.a(srv.o)
 .debug_abbrev  0x00004afb      0x163 c:/devkitPro/libctru/lib\libctru.a(rbtree_iterator.o)
 .debug_abbrev  0x00004c5e       0xad c:/devkitPro/libctru/lib\libctru.a(appExit.o)
 .debug_abbrev  0x00004d0b       0xdc c:/devkitPro/libctru/lib\libctru.a(appInit.o)
 .debug_abbrev  0x00004de7      0x116 c:/devkitPro/libctru/lib\libctru.a(ctru_exit.o)
 .debug_abbrev  0x00004efd      0x3fa c:/devkitPro/libctru/lib\libctru.a(sdmc_dev.o)
 .debug_abbrev  0x000052f7      0x2d3 c:/devkitPro/libctru/lib\libctru.a(fs.o)
 .debug_abbrev  0x000055ca       0x7f c:/devkitPro/libctru/lib\libctru.a(decode_utf8.o)
 .debug_abbrev  0x00005649      0x102 c:/devkitPro/libctru/lib\libctru.a(utf16_to_utf8.o)
 .debug_abbrev  0x0000574b      0x102 c:/devkitPro/libctru/lib\libctru.a(utf8_to_utf16.o)
 .debug_abbrev  0x0000584d       0x8e c:/devkitPro/libctru/lib\libctru.a(decode_utf16.o)
 .debug_abbrev  0x000058db       0x69 c:/devkitPro/libctru/lib\libctru.a(encode_utf16.o)
 .debug_abbrev  0x00005944       0x69 c:/devkitPro/libctru/lib\libctru.a(encode_utf8.o)

.debug_line     0x00000000     0x736b
 *(.debug_line)
 .debug_line    0x00000000      0x23d gfx.o
 .debug_line    0x0000023d      0x23a main.o
 .debug_line    0x00000477      0x179 mylib.o
 .debug_line    0x000005f0      0x2f4 sudoku.o
 .debug_line    0x000008e4      0x29f c:/devkitPro/libctru/lib\libsfil.a(sfil_png.o)
 .debug_line    0x00000b83      0x3cd c:/devkitPro/libctru/lib\libsf2d.a(sf2d.o)
 .debug_line    0x00000f50      0x334 c:/devkitPro/libctru/lib\libsf2d.a(sf2d_draw.o)
 .debug_line    0x00001284      0x2c0 c:/devkitPro/libctru/lib\libsf2d.a(sf2d_private.o)
 .debug_line    0x00001544      0xa40 c:/devkitPro/libctru/lib\libsf2d.a(sf2d_texture.o)
 .debug_line    0x00001f84      0x233 c:/devkitPro/libctru/lib\libctru.a(linear.o)
 .debug_line    0x000021b7      0x2d4 c:/devkitPro/libctru/lib\libctru.a(mem_pool.o)
 .debug_line    0x0000248b      0x230 c:/devkitPro/libctru/lib\libctru.a(vram.o)
 .debug_line    0x000026bb      0x2a5 c:/devkitPro/libctru/lib\libctru.a(gfx.o)
 .debug_line    0x00002960      0x233 c:/devkitPro/libctru/lib\libctru.a(os.o)
 .debug_line    0x00002b93      0x46f c:/devkitPro/libctru/lib\libctru.a(gpu.o)
 .debug_line    0x00003002      0x101 c:/devkitPro/libctru/lib\libctru.a(gpuResetSequence.o)
 .debug_line    0x00003103      0x305 c:/devkitPro/libctru/lib\libctru.a(shaderProgram.o)
 .debug_line    0x00003408      0x2b0 c:/devkitPro/libctru/lib\libctru.a(shbin.o)
 .debug_line    0x000036b8      0x7ec c:/devkitPro/libctru/lib\libctru.a(apt.o)
 .debug_line    0x00003ea4      0x36b c:/devkitPro/libctru/lib\libctru.a(gsp.o)
 .debug_line    0x0000420f      0x1dd c:/devkitPro/libctru/lib\libctru.a(gx.o)
 .debug_line    0x000043ec      0x2a6 c:/devkitPro/libctru/lib\libctru.a(hid.o)
 .debug_line    0x00004692      0x214 c:/devkitPro/libctru/lib\libctru.a(irrst.o)
 .debug_line    0x000048a6      0x174 c:/devkitPro/libctru/lib\libctru.a(rbtree_find.o)
 .debug_line    0x00004a1a      0x162 c:/devkitPro/libctru/lib\libctru.a(rbtree_init.o)
 .debug_line    0x00004b7c      0x22c c:/devkitPro/libctru/lib\libctru.a(rbtree_insert.o)
 .debug_line    0x00004da8      0x2cd c:/devkitPro/libctru/lib\libctru.a(rbtree_remove.o)
 .debug_line    0x00005075      0x1bd c:/devkitPro/libctru/lib\libctru.a(rbtree_rotate.o)
 .debug_line    0x00005232      0x12c c:/devkitPro/libctru/lib\libctru.a(allocateHeaps.o)
 .debug_line    0x0000535e      0x159 c:/devkitPro/libctru/lib\libctru.a(initArgv.o)
 .debug_line    0x000054b7      0x126 c:/devkitPro/libctru/lib\libctru.a(initSystem.o)
 .debug_line    0x000055dd      0x164 c:/devkitPro/libctru/lib\libctru.a(svc.o)
 .debug_line    0x00005741       0x79 c:/devkitPro/libctru/lib\libctru.a(stack_adjust.o)
 .debug_line    0x000057ba      0x24d c:/devkitPro/libctru/lib\libctru.a(srv.o)
 .debug_line    0x00005a07      0x159 c:/devkitPro/libctru/lib\libctru.a(rbtree_iterator.o)
 .debug_line    0x00005b60      0x165 c:/devkitPro/libctru/lib\libctru.a(appExit.o)
 .debug_line    0x00005cc5      0x165 c:/devkitPro/libctru/lib\libctru.a(appInit.o)
 .debug_line    0x00005e2a      0x122 c:/devkitPro/libctru/lib\libctru.a(ctru_exit.o)
 .debug_line    0x00005f4c      0x587 c:/devkitPro/libctru/lib\libctru.a(sdmc_dev.o)
 .debug_line    0x000064d3      0x5c4 c:/devkitPro/libctru/lib\libctru.a(fs.o)
 .debug_line    0x00006a97      0x163 c:/devkitPro/libctru/lib\libctru.a(decode_utf8.o)
 .debug_line    0x00006bfa      0x1cf c:/devkitPro/libctru/lib\libctru.a(utf16_to_utf8.o)
 .debug_line    0x00006dc9      0x1c5 c:/devkitPro/libctru/lib\libctru.a(utf8_to_utf16.o)
 .debug_line    0x00006f8e      0x136 c:/devkitPro/libctru/lib\libctru.a(decode_utf16.o)
 .debug_line    0x000070c4      0x140 c:/devkitPro/libctru/lib\libctru.a(encode_utf16.o)
 .debug_line    0x00007204      0x167 c:/devkitPro/libctru/lib\libctru.a(encode_utf8.o)

.debug_frame    0x00000000     0x3388
 *(.debug_frame)
 .debug_frame   0x00000000       0x58 gfx.o
 .debug_frame   0x00000058       0x6c main.o
 .debug_frame   0x000000c4       0x94 mylib.o
 .debug_frame   0x00000158      0x220 sudoku.o
 .debug_frame   0x00000378       0xc4 c:/devkitPro/libctru/lib\libsfil.a(sfil_png.o)
 .debug_frame   0x0000043c      0x1ec c:/devkitPro/libctru/lib\libsf2d.a(sf2d.o)
 .debug_frame   0x00000628       0xe4 c:/devkitPro/libctru/lib\libsf2d.a(sf2d_draw.o)
 .debug_frame   0x0000070c      0x158 c:/devkitPro/libctru/lib\libsf2d.a(sf2d_private.o)
 .debug_frame   0x00000864      0x5b8 c:/devkitPro/libctru/lib\libsf2d.a(sf2d_texture.o)
 .debug_frame   0x00000e1c       0xc0 c:/devkitPro/libctru/lib\libctru.a(linear.o)
 .debug_frame   0x00000edc       0xa8 c:/devkitPro/libctru/lib\libctru.a(mem_pool.o)
 .debug_frame   0x00000f84       0xb4 c:/devkitPro/libctru/lib\libctru.a(vram.o)
 .debug_frame   0x00001038      0x16c c:/devkitPro/libctru/lib\libctru.a(gfx.o)
 .debug_frame   0x000011a4       0xd4 c:/devkitPro/libctru/lib\libctru.a(os.o)
 .debug_frame   0x00001278      0x4f0 c:/devkitPro/libctru/lib\libctru.a(gpu.o)
 .debug_frame   0x00001768      0x16c c:/devkitPro/libctru/lib\libctru.a(shaderProgram.o)
 .debug_frame   0x000018d4       0xa4 c:/devkitPro/libctru/lib\libctru.a(shbin.o)
 .debug_frame   0x00001978      0x6a0 c:/devkitPro/libctru/lib\libctru.a(apt.o)
 .debug_frame   0x00002018      0x274 c:/devkitPro/libctru/lib\libctru.a(gsp.o)
 .debug_frame   0x0000228c       0xf0 c:/devkitPro/libctru/lib\libctru.a(gx.o)
 .debug_frame   0x0000237c      0x1f8 c:/devkitPro/libctru/lib\libctru.a(hid.o)
 .debug_frame   0x00002574      0x120 c:/devkitPro/libctru/lib\libctru.a(irrst.o)
 .debug_frame   0x00002694       0x30 c:/devkitPro/libctru/lib\libctru.a(rbtree_find.o)
 .debug_frame   0x000026c4       0x20 c:/devkitPro/libctru/lib\libctru.a(rbtree_init.o)
 .debug_frame   0x000026e4       0x54 c:/devkitPro/libctru/lib\libctru.a(rbtree_insert.o)
 .debug_frame   0x00002738       0x38 c:/devkitPro/libctru/lib\libctru.a(rbtree_remove.o)
 .debug_frame   0x00002770       0x2c c:/devkitPro/libctru/lib\libctru.a(rbtree_rotate.o)
 .debug_frame   0x0000279c       0x34 c:/devkitPro/libctru/lib\libctru.a(allocateHeaps.o)
 .debug_frame   0x000027d0       0x2c c:/devkitPro/libctru/lib\libctru.a(initArgv.o)
 .debug_frame   0x000027fc       0x2c c:/devkitPro/libctru/lib\libctru.a(initSystem.o)
 .debug_frame   0x00002828      0x158 c:/devkitPro/libctru/lib\libctru.a(srv.o)
 .debug_frame   0x00002980       0x30 c:/devkitPro/libctru/lib\libctru.a(rbtree_iterator.o)
 .debug_frame   0x000029b0       0x2c c:/devkitPro/libctru/lib\libctru.a(appExit.o)
 .debug_frame   0x000029dc       0x2c c:/devkitPro/libctru/lib\libctru.a(appInit.o)
 .debug_frame   0x00002a08       0x28 c:/devkitPro/libctru/lib\libctru.a(ctru_exit.o)
 .debug_frame   0x00002a30      0x3c4 c:/devkitPro/libctru/lib\libctru.a(sdmc_dev.o)
 .debug_frame   0x00002df4      0x484 c:/devkitPro/libctru/lib\libctru.a(fs.o)
 .debug_frame   0x00003278       0x30 c:/devkitPro/libctru/lib\libctru.a(decode_utf8.o)
 .debug_frame   0x000032a8       0x3c c:/devkitPro/libctru/lib\libctru.a(utf16_to_utf8.o)
 .debug_frame   0x000032e4       0x3c c:/devkitPro/libctru/lib\libctru.a(utf8_to_utf16.o)
 .debug_frame   0x00003320       0x28 c:/devkitPro/libctru/lib\libctru.a(decode_utf16.o)
 .debug_frame   0x00003348       0x20 c:/devkitPro/libctru/lib\libctru.a(encode_utf16.o)
 .debug_frame   0x00003368       0x20 c:/devkitPro/libctru/lib\libctru.a(encode_utf8.o)

.debug_str      0x00000000     0x6000
 *(.debug_str)
 .debug_str     0x00000000      0x356 gfx.o
                                0x400 (size before relaxing)
 .debug_str     0x00000356      0x247 main.o
                                0x540 (size before relaxing)
 .debug_str     0x0000059d      0x3de mylib.o
                                0x59c (size before relaxing)
 .debug_str     0x0000097b      0x12c sudoku.o
                                0x327 (size before relaxing)
 .debug_str     0x00000aa7      0x4ae c:/devkitPro/libctru/lib\libsfil.a(sfil_png.o)
                                0xa8b (size before relaxing)
 .debug_str     0x00000f55      0xd04 c:/devkitPro/libctru/lib\libsf2d.a(sf2d.o)
                                0xf23 (size before relaxing)
 .debug_str     0x00001c59      0x29f c:/devkitPro/libctru/lib\libsf2d.a(sf2d_draw.o)
                                0x41d (size before relaxing)
 .debug_str     0x00001ef8      0x132 c:/devkitPro/libctru/lib\libsf2d.a(sf2d_private.o)
                                0x3ed (size before relaxing)
 .debug_str     0x0000202a      0x5d3 c:/devkitPro/libctru/lib\libsf2d.a(sf2d_texture.o)
                                0xc4b (size before relaxing)
 .debug_str     0x000025fd      0x449 c:/devkitPro/libctru/lib\libctru.a(linear.o)
                                0x59f (size before relaxing)
 .debug_str     0x00002a46       0x70 c:/devkitPro/libctru/lib\libctru.a(mem_pool.o)
                                0x433 (size before relaxing)
 .debug_str     0x00002ab6       0x58 c:/devkitPro/libctru/lib\libctru.a(vram.o)
                                0x56e (size before relaxing)
 .debug_str     0x00002b0e      0x507 c:/devkitPro/libctru/lib\libctru.a(gfx.o)
                                0x73e (size before relaxing)
 .debug_str     0x00003015      0x14f c:/devkitPro/libctru/lib\libctru.a(os.o)
                                0x69f (size before relaxing)
 .debug_str     0x00003164      0x54c c:/devkitPro/libctru/lib\libctru.a(gpu.o)
                                0xe5e (size before relaxing)
 .debug_str     0x000036b0       0x33 c:/devkitPro/libctru/lib\libctru.a(gpuResetSequence.o)
                                0x185 (size before relaxing)
 .debug_str     0x000036e3      0x11d c:/devkitPro/libctru/lib\libctru.a(shaderProgram.o)
                                0x5b4 (size before relaxing)
 .debug_str     0x00003800      0x118 c:/devkitPro/libctru/lib\libctru.a(shbin.o)
                                0x456 (size before relaxing)
 .debug_str     0x00003918      0xc39 c:/devkitPro/libctru/lib\libctru.a(apt.o)
                                0xf86 (size before relaxing)
 .debug_str     0x00004551      0x254 c:/devkitPro/libctru/lib\libctru.a(gsp.o)
                                0x75c (size before relaxing)
 .debug_str     0x000047a5       0xb2 c:/devkitPro/libctru/lib\libctru.a(gx.o)
                                0x2bf (size before relaxing)
 .debug_str     0x00004857      0x31f c:/devkitPro/libctru/lib\libctru.a(hid.o)
                                0x728 (size before relaxing)
 .debug_str     0x00004b76      0x111 c:/devkitPro/libctru/lib\libctru.a(irrst.o)
                                0x445 (size before relaxing)
 .debug_str     0x00004c87       0x3b c:/devkitPro/libctru/lib\libctru.a(rbtree_find.o)
                                0x1ef (size before relaxing)
 .debug_str     0x00004cc2       0x36 c:/devkitPro/libctru/lib\libctru.a(rbtree_init.o)
                                0x1e5 (size before relaxing)
 .debug_str     0x00004cf8       0xda c:/devkitPro/libctru/lib\libctru.a(rbtree_insert.o)
                                0x2a7 (size before relaxing)
 .debug_str     0x00004dd2       0x6d c:/devkitPro/libctru/lib\libctru.a(rbtree_remove.o)
                                0x2c5 (size before relaxing)
 .debug_str     0x00004e3f       0x38 c:/devkitPro/libctru/lib\libctru.a(rbtree_rotate.o)
                                0x23c (size before relaxing)
 .debug_str     0x00004e77      0x158 c:/devkitPro/libctru/lib\libctru.a(allocateHeaps.o)
                                0x305 (size before relaxing)
 .debug_str     0x00004fcf       0x82 c:/devkitPro/libctru/lib\libctru.a(initArgv.o)
                                0x1c8 (size before relaxing)
 .debug_str     0x00005051      0x153 c:/devkitPro/libctru/lib\libctru.a(initSystem.o)
                                0x6c1 (size before relaxing)
 .debug_str     0x000051a4      0x152 c:/devkitPro/libctru/lib\libctru.a(srv.o)
                                0x35b (size before relaxing)
 .debug_str     0x000052f6       0x56 c:/devkitPro/libctru/lib\libctru.a(rbtree_iterator.o)
                                0x1ef (size before relaxing)
 .debug_str     0x0000534c       0x47 c:/devkitPro/libctru/lib\libctru.a(appExit.o)
                                0x18e (size before relaxing)
 .debug_str     0x00005393       0x47 c:/devkitPro/libctru/lib\libctru.a(appInit.o)
                                0x1a2 (size before relaxing)
 .debug_str     0x000053da       0x4d c:/devkitPro/libctru/lib\libctru.a(ctru_exit.o)
                                0x30c (size before relaxing)
 .debug_str     0x00005427      0x89c c:/devkitPro/libctru/lib\libctru.a(sdmc_dev.o)
                                0xed3 (size before relaxing)
 .debug_str     0x00005cc3      0x1bf c:/devkitPro/libctru/lib\libctru.a(fs.o)
                                0x6aa (size before relaxing)
 .debug_str     0x00005e82       0x4b c:/devkitPro/libctru/lib\libctru.a(decode_utf8.o)
                                0x1a9 (size before relaxing)
 .debug_str     0x00005ecd       0x56 c:/devkitPro/libctru/lib\libctru.a(utf16_to_utf8.o)
                                0x1dc (size before relaxing)
 .debug_str     0x00005f23       0x42 c:/devkitPro/libctru/lib\libctru.a(utf8_to_utf16.o)
                                0x1dc (size before relaxing)
 .debug_str     0x00005f65       0x34 c:/devkitPro/libctru/lib\libctru.a(decode_utf16.o)
                                0x1a1 (size before relaxing)
 .debug_str     0x00005f99       0x34 c:/devkitPro/libctru/lib\libctru.a(encode_utf16.o)
                                0x195 (size before relaxing)
 .debug_str     0x00005fcd       0x33 c:/devkitPro/libctru/lib\libctru.a(encode_utf8.o)
                                0x191 (size before relaxing)

.debug_loc      0x00000000     0xfc82
 *(.debug_loc)
 .debug_loc     0x00000000       0x60 gfx.o
 .debug_loc     0x00000060       0xd5 main.o
 .debug_loc     0x00000135      0x211 mylib.o
 .debug_loc     0x00000346      0x5f6 sudoku.o
 .debug_loc     0x0000093c      0x308 c:/devkitPro/libctru/lib\libsfil.a(sfil_png.o)
 .debug_loc     0x00000c44      0x26d c:/devkitPro/libctru/lib\libsf2d.a(sf2d.o)
 .debug_loc     0x00000eb1      0x605 c:/devkitPro/libctru/lib\libsf2d.a(sf2d_draw.o)
 .debug_loc     0x000014b6      0x410 c:/devkitPro/libctru/lib\libsf2d.a(sf2d_private.o)
 .debug_loc     0x000018c6     0x3cc1 c:/devkitPro/libctru/lib\libsf2d.a(sf2d_texture.o)
 .debug_loc     0x00005587      0x309 c:/devkitPro/libctru/lib\libctru.a(linear.o)
 .debug_loc     0x00005890      0x95b c:/devkitPro/libctru/lib\libctru.a(mem_pool.o)
 .debug_loc     0x000061eb      0x304 c:/devkitPro/libctru/lib\libctru.a(vram.o)
 .debug_loc     0x000064ef      0x464 c:/devkitPro/libctru/lib\libctru.a(gfx.o)
 .debug_loc     0x00006953      0x23d c:/devkitPro/libctru/lib\libctru.a(os.o)
 .debug_loc     0x00006b90     0x140a c:/devkitPro/libctru/lib\libctru.a(gpu.o)
 .debug_loc     0x00007f9a      0x67f c:/devkitPro/libctru/lib\libctru.a(shaderProgram.o)
 .debug_loc     0x00008619      0x410 c:/devkitPro/libctru/lib\libctru.a(shbin.o)
 .debug_loc     0x00008a29     0x1900 c:/devkitPro/libctru/lib\libctru.a(apt.o)
 .debug_loc     0x0000a329      0xd16 c:/devkitPro/libctru/lib\libctru.a(gsp.o)
 .debug_loc     0x0000b03f      0x38a c:/devkitPro/libctru/lib\libctru.a(gx.o)
 .debug_loc     0x0000b3c9      0x7fd c:/devkitPro/libctru/lib\libctru.a(hid.o)
 .debug_loc     0x0000bbc6      0x39c c:/devkitPro/libctru/lib\libctru.a(irrst.o)
 .debug_loc     0x0000bf62      0x10d c:/devkitPro/libctru/lib\libctru.a(rbtree_find.o)
 .debug_loc     0x0000c06f      0x382 c:/devkitPro/libctru/lib\libctru.a(rbtree_insert.o)
 .debug_loc     0x0000c3f1      0x506 c:/devkitPro/libctru/lib\libctru.a(rbtree_remove.o)
 .debug_loc     0x0000c8f7       0x8e c:/devkitPro/libctru/lib\libctru.a(rbtree_rotate.o)
 .debug_loc     0x0000c985       0xfb c:/devkitPro/libctru/lib\libctru.a(initArgv.o)
 .debug_loc     0x0000ca80       0x21 c:/devkitPro/libctru/lib\libctru.a(initSystem.o)
 .debug_loc     0x0000caa1      0x41e c:/devkitPro/libctru/lib\libctru.a(srv.o)
 .debug_loc     0x0000cebf      0x2b2 c:/devkitPro/libctru/lib\libctru.a(rbtree_iterator.o)
 .debug_loc     0x0000d171       0x21 c:/devkitPro/libctru/lib\libctru.a(ctru_exit.o)
 .debug_loc     0x0000d192     0x124d c:/devkitPro/libctru/lib\libctru.a(sdmc_dev.o)
 .debug_loc     0x0000e3df     0x110f c:/devkitPro/libctru/lib\libctru.a(fs.o)
 .debug_loc     0x0000f4ee      0x232 c:/devkitPro/libctru/lib\libctru.a(decode_utf8.o)
 .debug_loc     0x0000f720      0x125 c:/devkitPro/libctru/lib\libctru.a(utf16_to_utf8.o)
 .debug_loc     0x0000f845       0xf3 c:/devkitPro/libctru/lib\libctru.a(utf8_to_utf16.o)
 .debug_loc     0x0000f938       0xc4 c:/devkitPro/libctru/lib\libctru.a(decode_utf16.o)
 .debug_loc     0x0000f9fc       0xdc c:/devkitPro/libctru/lib\libctru.a(encode_utf16.o)
 .debug_loc     0x0000fad8      0x1aa c:/devkitPro/libctru/lib\libctru.a(encode_utf8.o)

.debug_macinfo
 *(.debug_macinfo)
LOAD c:/devkitpro/devkitarm/bin/../lib/gcc/arm-none-eabi/4.9.2/../../../../arm-none-eabi/lib/armv6k/fpu/3dsx_crt0.o
LOAD c:/devkitpro/devkitarm/bin/../lib/gcc/arm-none-eabi/4.9.2/armv6k/fpu/crti.o
LOAD c:/devkitpro/devkitarm/bin/../lib/gcc/arm-none-eabi/4.9.2/armv6k/fpu/crtbegin.o
LOAD 0.bin.o
LOAD 1.bin.o
LOAD 2.bin.o
LOAD 3.bin.o
LOAD 4.bin.o
LOAD 5.bin.o
LOAD 6.bin.o
LOAD 7.bin.o
LOAD 8.bin.o
LOAD 9.bin.o
LOAD bg.bin.o
LOAD immut_numbers.bin.o
LOAD mut_numbers.bin.o
LOAD selector.bin.o
LOAD gfx.o
LOAD main.o
LOAD mylib.o
LOAD sudoku.o
LOAD c:/devkitPro/libctru/lib\libsfil.a
LOAD c:/devkitPro/portlibs/armv6k/lib\libpng.a
LOAD c:/devkitPro/portlibs/armv6k/lib\libjpeg.a
LOAD c:/devkitPro/portlibs/armv6k/lib\libz.a
LOAD c:/devkitPro/libctru/lib\libsf2d.a
LOAD c:/devkitPro/libctru/lib\libctru.a
LOAD c:/devkitpro/devkitarm/bin/../lib/gcc/arm-none-eabi/4.9.2/../../../../arm-none-eabi/lib/armv6k/fpu\libm.a
START GROUP
LOAD c:/devkitpro/devkitarm/bin/../lib/gcc/arm-none-eabi/4.9.2/armv6k/fpu\libgcc.a
LOAD c:/devkitpro/devkitarm/bin/../lib/gcc/arm-none-eabi/4.9.2/../../../../arm-none-eabi/lib/armv6k/fpu\libg.a
LOAD c:/devkitpro/devkitarm/bin/../lib/gcc/arm-none-eabi/4.9.2/../../../../arm-none-eabi/lib/armv6k/fpu\libc.a
LOAD c:/devkitpro/devkitarm/bin/../lib/gcc/arm-none-eabi/4.9.2/../../../../arm-none-eabi/lib/armv6k/fpu\libsysbase.a
END GROUP
LOAD c:/devkitpro/devkitarm/bin/../lib/gcc/arm-none-eabi/4.9.2/armv6k/fpu/crtend.o
LOAD c:/devkitpro/devkitarm/bin/../lib/gcc/arm-none-eabi/4.9.2/armv6k/fpu/crtn.o
OUTPUT(c:/3ds_dev/Sudoku3DS/Sudoku3DS.elf elf32-littlearm)

.ARM.attributes
                0x00000000       0x32
 .ARM.attributes
                0x00000000       0x1e c:/devkitpro/devkitarm/bin/../lib/gcc/arm-none-eabi/4.9.2/../../../../arm-none-eabi/lib/armv6k/fpu/3dsx_crt0.o
 .ARM.attributes
                0x0000001e       0x1c c:/devkitpro/devkitarm/bin/../lib/gcc/arm-none-eabi/4.9.2/armv6k/fpu/crti.o
 .ARM.attributes
                0x0000003a       0x32 c:/devkitpro/devkitarm/bin/../lib/gcc/arm-none-eabi/4.9.2/armv6k/fpu/crtbegin.o
 .ARM.attributes
                0x0000006c       0x14 0.bin.o
 .ARM.attributes
                0x00000080       0x14 1.bin.o
 .ARM.attributes
                0x00000094       0x14 2.bin.o
 .ARM.attributes
                0x000000a8       0x14 3.bin.o
 .ARM.attributes
                0x000000bc       0x14 4.bin.o
 .ARM.attributes
                0x000000d0       0x14 5.bin.o
 .ARM.attributes
                0x000000e4       0x14 6.bin.o
 .ARM.attributes
                0x000000f8       0x14 7.bin.o
 .ARM.attributes
                0x0000010c       0x14 8.bin.o
 .ARM.attributes
                0x00000120       0x14 9.bin.o
 .ARM.attributes
                0x00000134       0x14 bg.bin.o
 .ARM.attributes
                0x00000148       0x14 immut_numbers.bin.o
 .ARM.attributes
                0x0000015c       0x14 mut_numbers.bin.o
 .ARM.attributes
                0x00000170       0x14 selector.bin.o
 .ARM.attributes
                0x00000184       0x2e gfx.o
 .ARM.attributes
                0x000001b2       0x2e main.o
 .ARM.attributes
                0x000001e0       0x2e mylib.o
 .ARM.attributes
                0x0000020e       0x2e sudoku.o
 .ARM.attributes
                0x0000023c       0x32 c:/devkitPro/libctru/lib\libsfil.a(sfil_png.o)
 .ARM.attributes
                0x0000026e       0x2e c:/devkitPro/portlibs/armv6k/lib\libpng.a(png.o)
 .ARM.attributes
                0x0000029c       0x2e c:/devkitPro/portlibs/armv6k/lib\libpng.a(pngerror.o)
 .ARM.attributes
                0x000002ca       0x2e c:/devkitPro/portlibs/armv6k/lib\libpng.a(pngget.o)
 .ARM.attributes
                0x000002f8       0x2e c:/devkitPro/portlibs/armv6k/lib\libpng.a(pngmem.o)
 .ARM.attributes
                0x00000326       0x2e c:/devkitPro/portlibs/armv6k/lib\libpng.a(pngread.o)
 .ARM.attributes
                0x00000354       0x2e c:/devkitPro/portlibs/armv6k/lib\libpng.a(pngrio.o)
 .ARM.attributes
                0x00000382       0x2e c:/devkitPro/portlibs/armv6k/lib\libpng.a(pngrtran.o)
 .ARM.attributes
                0x000003b0       0x2e c:/devkitPro/portlibs/armv6k/lib\libpng.a(pngrutil.o)
 .ARM.attributes
                0x000003de       0x2e c:/devkitPro/portlibs/armv6k/lib\libpng.a(pngset.o)
 .ARM.attributes
                0x0000040c       0x2e c:/devkitPro/portlibs/armv6k/lib\libpng.a(pngtrans.o)
 .ARM.attributes
                0x0000043a       0x2e c:/devkitPro/portlibs/armv6k/lib\libpng.a(pngwrite.o)
 .ARM.attributes
                0x00000468       0x2e c:/devkitPro/portlibs/armv6k/lib\libpng.a(pngwtran.o)
 .ARM.attributes
                0x00000496       0x2e c:/devkitPro/portlibs/armv6k/lib\libpng.a(pngwutil.o)
 .ARM.attributes
                0x000004c4       0x2e c:/devkitPro/portlibs/armv6k/lib\libpng.a(pngwio.o)
 .ARM.attributes
                0x000004f2       0x2e c:/devkitPro/portlibs/armv6k/lib\libz.a(adler32.o)
 .ARM.attributes
                0x00000520       0x2e c:/devkitPro/portlibs/armv6k/lib\libz.a(crc32.o)
 .ARM.attributes
                0x0000054e       0x2e c:/devkitPro/portlibs/armv6k/lib\libz.a(deflate.o)
 .ARM.attributes
                0x0000057c       0x2e c:/devkitPro/portlibs/armv6k/lib\libz.a(inflate.o)
 .ARM.attributes
                0x000005aa       0x2e c:/devkitPro/portlibs/armv6k/lib\libz.a(inftrees.o)
 .ARM.attributes
                0x000005d8       0x2e c:/devkitPro/portlibs/armv6k/lib\libz.a(trees.o)
 .ARM.attributes
                0x00000606       0x2e c:/devkitPro/portlibs/armv6k/lib\libz.a(zutil.o)
 .ARM.attributes
                0x00000634       0x2e c:/devkitPro/portlibs/armv6k/lib\libz.a(inffast.o)
 .ARM.attributes
                0x00000662       0x32 c:/devkitPro/libctru/lib\libsf2d.a(sf2d.o)
 .ARM.attributes
                0x00000694       0x32 c:/devkitPro/libctru/lib\libsf2d.a(sf2d_draw.o)
 .ARM.attributes
                0x000006c6       0x32 c:/devkitPro/libctru/lib\libsf2d.a(sf2d_private.o)
 .ARM.attributes
                0x000006f8       0x32 c:/devkitPro/libctru/lib\libsf2d.a(sf2d_texture.o)
 .ARM.attributes
                0x0000072a       0x14 c:/devkitPro/libctru/lib\libsf2d.a(shader.vsh.o)
 .ARM.attributes
                0x0000073e       0x2e c:/devkitPro/libctru/lib\libctru.a(linear.o)
 .ARM.attributes
                0x0000076c       0x2e c:/devkitPro/libctru/lib\libctru.a(mem_pool.o)
 .ARM.attributes
                0x0000079a       0x2e c:/devkitPro/libctru/lib\libctru.a(vram.o)
 .ARM.attributes
                0x000007c8       0x2e c:/devkitPro/libctru/lib\libctru.a(gfx.o)
 .ARM.attributes
                0x000007f6       0x2e c:/devkitPro/libctru/lib\libctru.a(os.o)
 .ARM.attributes
                0x00000824       0x2e c:/devkitPro/libctru/lib\libctru.a(gpu.o)
 .ARM.attributes
                0x00000852       0x2e c:/devkitPro/libctru/lib\libctru.a(gpuResetSequence.o)
 .ARM.attributes
                0x00000880       0x2e c:/devkitPro/libctru/lib\libctru.a(shaderProgram.o)
 .ARM.attributes
                0x000008ae       0x2e c:/devkitPro/libctru/lib\libctru.a(shbin.o)
 .ARM.attributes
                0x000008dc       0x2e c:/devkitPro/libctru/lib\libctru.a(apt.o)
 .ARM.attributes
                0x0000090a       0x2e c:/devkitPro/libctru/lib\libctru.a(gsp.o)
 .ARM.attributes
                0x00000938       0x2e c:/devkitPro/libctru/lib\libctru.a(gx.o)
 .ARM.attributes
                0x00000966       0x2e c:/devkitPro/libctru/lib\libctru.a(hid.o)
 .ARM.attributes
                0x00000994       0x2e c:/devkitPro/libctru/lib\libctru.a(irrst.o)
 .ARM.attributes
                0x000009c2       0x2e c:/devkitPro/libctru/lib\libctru.a(rbtree_find.o)
 .ARM.attributes
                0x000009f0       0x2e c:/devkitPro/libctru/lib\libctru.a(rbtree_init.o)
 .ARM.attributes
                0x00000a1e       0x2e c:/devkitPro/libctru/lib\libctru.a(rbtree_insert.o)
 .ARM.attributes
                0x00000a4c       0x2e c:/devkitPro/libctru/lib\libctru.a(rbtree_remove.o)
 .ARM.attributes
                0x00000a7a       0x2e c:/devkitPro/libctru/lib\libctru.a(rbtree_rotate.o)
 .ARM.attributes
                0x00000aa8       0x2e c:/devkitPro/libctru/lib\libctru.a(allocateHeaps.o)
 .ARM.attributes
                0x00000ad6       0x2e c:/devkitPro/libctru/lib\libctru.a(initArgv.o)
 .ARM.attributes
                0x00000b04       0x2e c:/devkitPro/libctru/lib\libctru.a(initSystem.o)
 .ARM.attributes
                0x00000b32       0x1a c:/devkitPro/libctru/lib\libctru.a(svc.o)
 .ARM.attributes
                0x00000b4c       0x1a c:/devkitPro/libctru/lib\libctru.a(stack_adjust.o)
 .ARM.attributes
                0x00000b66       0x2e c:/devkitPro/libctru/lib\libctru.a(srv.o)
 .ARM.attributes
                0x00000b94       0x2e c:/devkitPro/libctru/lib\libctru.a(rbtree_iterator.o)
 .ARM.attributes
                0x00000bc2       0x2e c:/devkitPro/libctru/lib\libctru.a(appExit.o)
 .ARM.attributes
                0x00000bf0       0x2e c:/devkitPro/libctru/lib\libctru.a(appInit.o)
 .ARM.attributes
                0x00000c1e       0x2e c:/devkitPro/libctru/lib\libctru.a(ctru_exit.o)
 .ARM.attributes
                0x00000c4c       0x2e c:/devkitPro/libctru/lib\libctru.a(sdmc_dev.o)
 .ARM.attributes
                0x00000c7a       0x2e c:/devkitPro/libctru/lib\libctru.a(fs.o)
 .ARM.attributes
                0x00000ca8       0x2e c:/devkitPro/libctru/lib\libctru.a(decode_utf8.o)
 .ARM.attributes
                0x00000cd6       0x2e c:/devkitPro/libctru/lib\libctru.a(utf16_to_utf8.o)
 .ARM.attributes
                0x00000d04       0x2e c:/devkitPro/libctru/lib\libctru.a(utf8_to_utf16.o)
 .ARM.attributes
                0x00000d32       0x2e c:/devkitPro/libctru/lib\libctru.a(decode_utf16.o)
 .ARM.attributes
                0x00000d60       0x2e c:/devkitPro/libctru/lib\libctru.a(encode_utf16.o)
 .ARM.attributes
                0x00000d8e       0x2e c:/devkitPro/libctru/lib\libctru.a(encode_utf8.o)
 .ARM.attributes
                0x00000dbc       0x32 c:/devkitpro/devkitarm/bin/../lib/gcc/arm-none-eabi/4.9.2/../../../../arm-none-eabi/lib/armv6k/fpu\libm.a(lib_a-sf_cos.o)
 .ARM.attributes
                0x00000dee       0x32 c:/devkitpro/devkitarm/bin/../lib/gcc/arm-none-eabi/4.9.2/../../../../arm-none-eabi/lib/armv6k/fpu\libm.a(lib_a-s_floor.o)
 .ARM.attributes
                0x00000e20       0x32 c:/devkitpro/devkitarm/bin/../lib/gcc/arm-none-eabi/4.9.2/../../../../arm-none-eabi/lib/armv6k/fpu\libm.a(lib_a-s_frexp.o)
 .ARM.attributes
                0x00000e52       0x32 c:/devkitpro/devkitarm/bin/../lib/gcc/arm-none-eabi/4.9.2/../../../../arm-none-eabi/lib/armv6k/fpu\libm.a(lib_a-sf_sin.o)
 .ARM.attributes
                0x00000e84       0x32 c:/devkitpro/devkitarm/bin/../lib/gcc/arm-none-eabi/4.9.2/../../../../arm-none-eabi/lib/armv6k/fpu\libm.a(lib_a-s_modf.o)
 .ARM.attributes
                0x00000eb6       0x32 c:/devkitpro/devkitarm/bin/../lib/gcc/arm-none-eabi/4.9.2/../../../../arm-none-eabi/lib/armv6k/fpu\libm.a(lib_a-w_pow.o)
 .ARM.attributes
                0x00000ee8       0x32 c:/devkitpro/devkitarm/bin/../lib/gcc/arm-none-eabi/4.9.2/../../../../arm-none-eabi/lib/armv6k/fpu\libm.a(lib_a-ef_rem_pio2.o)
 .ARM.attributes
                0x00000f1a       0x32 c:/devkitpro/devkitarm/bin/../lib/gcc/arm-none-eabi/4.9.2/../../../../arm-none-eabi/lib/armv6k/fpu\libm.a(lib_a-e_pow.o)
 .ARM.attributes
                0x00000f4c       0x32 c:/devkitpro/devkitarm/bin/../lib/gcc/arm-none-eabi/4.9.2/../../../../arm-none-eabi/lib/armv6k/fpu\libm.a(lib_a-e_sqrt.o)
 .ARM.attributes
                0x00000f7e       0x32 c:/devkitpro/devkitarm/bin/../lib/gcc/arm-none-eabi/4.9.2/../../../../arm-none-eabi/lib/armv6k/fpu\libm.a(lib_a-kf_cos.o)
 .ARM.attributes
                0x00000fb0       0x32 c:/devkitpro/devkitarm/bin/../lib/gcc/arm-none-eabi/4.9.2/../../../../arm-none-eabi/lib/armv6k/fpu\libm.a(lib_a-kf_rem_pio2.o)
 .ARM.attributes
                0x00000fe2       0x32 c:/devkitpro/devkitarm/bin/../lib/gcc/arm-none-eabi/4.9.2/../../../../arm-none-eabi/lib/armv6k/fpu\libm.a(lib_a-kf_sin.o)
 .ARM.attributes
                0x00001014       0x32 c:/devkitpro/devkitarm/bin/../lib/gcc/arm-none-eabi/4.9.2/../../../../arm-none-eabi/lib/armv6k/fpu\libm.a(lib_a-s_fabs.o)
 .ARM.attributes
                0x00001046       0x32 c:/devkitpro/devkitarm/bin/../lib/gcc/arm-none-eabi/4.9.2/../../../../arm-none-eabi/lib/armv6k/fpu\libm.a(lib_a-sf_fabs.o)
 .ARM.attributes
                0x00001078       0x32 c:/devkitpro/devkitarm/bin/../lib/gcc/arm-none-eabi/4.9.2/../../../../arm-none-eabi/lib/armv6k/fpu\libm.a(lib_a-sf_floor.o)
 .ARM.attributes
                0x000010aa       0x32 c:/devkitpro/devkitarm/bin/../lib/gcc/arm-none-eabi/4.9.2/../../../../arm-none-eabi/lib/armv6k/fpu\libm.a(lib_a-s_finite.o)
 .ARM.attributes
                0x000010dc       0x32 c:/devkitpro/devkitarm/bin/../lib/gcc/arm-none-eabi/4.9.2/../../../../arm-none-eabi/lib/armv6k/fpu\libm.a(lib_a-s_fpclassify.o)
 .ARM.attributes
                0x0000110e       0x32 c:/devkitpro/devkitarm/bin/../lib/gcc/arm-none-eabi/4.9.2/../../../../arm-none-eabi/lib/armv6k/fpu\libm.a(lib_a-sf_scalbn.o)
 .ARM.attributes
                0x00001140       0x32 c:/devkitpro/devkitarm/bin/../lib/gcc/arm-none-eabi/4.9.2/../../../../arm-none-eabi/lib/armv6k/fpu\libm.a(lib_a-s_lib_ver.o)
 .ARM.attributes
                0x00001172       0x32 c:/devkitpro/devkitarm/bin/../lib/gcc/arm-none-eabi/4.9.2/../../../../arm-none-eabi/lib/armv6k/fpu\libm.a(lib_a-s_matherr.o)
 .ARM.attributes
                0x000011a4       0x32 c:/devkitpro/devkitarm/bin/../lib/gcc/arm-none-eabi/4.9.2/../../../../arm-none-eabi/lib/armv6k/fpu\libm.a(lib_a-s_nan.o)
 .ARM.attributes
                0x000011d6       0x32 c:/devkitpro/devkitarm/bin/../lib/gcc/arm-none-eabi/4.9.2/../../../../arm-none-eabi/lib/armv6k/fpu\libm.a(lib_a-s_rint.o)
 .ARM.attributes
                0x00001208       0x32 c:/devkitpro/devkitarm/bin/../lib/gcc/arm-none-eabi/4.9.2/../../../../arm-none-eabi/lib/armv6k/fpu\libm.a(lib_a-s_scalbn.o)
 .ARM.attributes
                0x0000123a       0x32 c:/devkitpro/devkitarm/bin/../lib/gcc/arm-none-eabi/4.9.2/../../../../arm-none-eabi/lib/armv6k/fpu\libm.a(lib_a-s_copysign.o)
 .ARM.attributes
                0x0000126c       0x32 c:/devkitpro/devkitarm/bin/../lib/gcc/arm-none-eabi/4.9.2/../../../../arm-none-eabi/lib/armv6k/fpu\libm.a(lib_a-sf_copysign.o)
 .ARM.attributes
                0x0000129e       0x1c c:/devkitpro/devkitarm/bin/../lib/gcc/arm-none-eabi/4.9.2/armv6k/fpu\libgcc.a(_udivsi3.o)
 .ARM.attributes
                0x000012ba       0x1c c:/devkitpro/devkitarm/bin/../lib/gcc/arm-none-eabi/4.9.2/armv6k/fpu\libgcc.a(_divsi3.o)
 .ARM.attributes
                0x000012d6       0x1c c:/devkitpro/devkitarm/bin/../lib/gcc/arm-none-eabi/4.9.2/armv6k/fpu\libgcc.a(_dvmd_tls.o)
 .ARM.attributes
                0x000012f2       0x1c c:/devkitpro/devkitarm/bin/../lib/gcc/arm-none-eabi/4.9.2/armv6k/fpu\libgcc.a(_arm_addsubsf3.o)
 .ARM.attributes
                0x0000130e       0x32 c:/devkitpro/devkitarm/bin/../lib/gcc/arm-none-eabi/4.9.2/../../../../arm-none-eabi/lib/armv6k/fpu\libg.a(lib_a-abort.o)
 .ARM.attributes
                0x00001340       0x32 c:/devkitpro/devkitarm/bin/../lib/gcc/arm-none-eabi/4.9.2/../../../../arm-none-eabi/lib/armv6k/fpu\libg.a(lib_a-atof.o)
 .ARM.attributes
                0x00001372       0x32 c:/devkitpro/devkitarm/bin/../lib/gcc/arm-none-eabi/4.9.2/../../../../arm-none-eabi/lib/armv6k/fpu\libg.a(lib_a-bsearch.o)
 .ARM.attributes
                0x000013a4       0x32 c:/devkitpro/devkitarm/bin/../lib/gcc/arm-none-eabi/4.9.2/../../../../arm-none-eabi/lib/armv6k/fpu\libg.a(lib_a-errno.o)
 .ARM.attributes
                0x000013d6       0x32 c:/devkitpro/devkitarm/bin/../lib/gcc/arm-none-eabi/4.9.2/../../../../arm-none-eabi/lib/armv6k/fpu\libg.a(lib_a-exit.o)
 .ARM.attributes
                0x00001408       0x32 c:/devkitpro/devkitarm/bin/../lib/gcc/arm-none-eabi/4.9.2/../../../../arm-none-eabi/lib/armv6k/fpu\libg.a(lib_a-fclose.o)
 .ARM.attributes
                0x0000143a       0x32 c:/devkitpro/devkitarm/bin/../lib/gcc/arm-none-eabi/4.9.2/../../../../arm-none-eabi/lib/armv6k/fpu\libg.a(lib_a-fflush.o)
 .ARM.attributes
                0x0000146c       0x32 c:/devkitpro/devkitarm/bin/../lib/gcc/arm-none-eabi/4.9.2/../../../../arm-none-eabi/lib/armv6k/fpu\libg.a(lib_a-findfp.o)
 .ARM.attributes
                0x0000149e       0x32 c:/devkitpro/devkitarm/bin/../lib/gcc/arm-none-eabi/4.9.2/../../../../arm-none-eabi/lib/armv6k/fpu\libg.a(lib_a-fini.o)
 .ARM.attributes
                0x000014d0       0x32 c:/devkitpro/devkitarm/bin/../lib/gcc/arm-none-eabi/4.9.2/../../../../arm-none-eabi/lib/armv6k/fpu\libg.a(lib_a-fopen.o)
 .ARM.attributes
                0x00001502       0x32 c:/devkitpro/devkitarm/bin/../lib/gcc/arm-none-eabi/4.9.2/../../../../arm-none-eabi/lib/armv6k/fpu\libg.a(lib_a-fprintf.o)
 .ARM.attributes
                0x00001534       0x32 c:/devkitpro/devkitarm/bin/../lib/gcc/arm-none-eabi/4.9.2/../../../../arm-none-eabi/lib/armv6k/fpu\libg.a(lib_a-fputc.o)
 .ARM.attributes
                0x00001566       0x32 c:/devkitpro/devkitarm/bin/../lib/gcc/arm-none-eabi/4.9.2/../../../../arm-none-eabi/lib/armv6k/fpu\libg.a(lib_a-fread.o)
 .ARM.attributes
                0x00001598       0x32 c:/devkitpro/devkitarm/bin/../lib/gcc/arm-none-eabi/4.9.2/../../../../arm-none-eabi/lib/armv6k/fpu\libg.a(lib_a-freer.o)
 .ARM.attributes
                0x000015ca       0x32 c:/devkitpro/devkitarm/bin/../lib/gcc/arm-none-eabi/4.9.2/../../../../arm-none-eabi/lib/armv6k/fpu\libg.a(lib_a-fseek.o)
 .ARM.attributes
                0x000015fc       0x32 c:/devkitpro/devkitarm/bin/../lib/gcc/arm-none-eabi/4.9.2/../../../../arm-none-eabi/lib/armv6k/fpu\libg.a(lib_a-fseeko.o)
 .ARM.attributes
                0x0000162e       0x32 c:/devkitpro/devkitarm/bin/../lib/gcc/arm-none-eabi/4.9.2/../../../../arm-none-eabi/lib/armv6k/fpu\libg.a(lib_a-fwalk.o)
 .ARM.attributes
                0x00001660       0x32 c:/devkitpro/devkitarm/bin/../lib/gcc/arm-none-eabi/4.9.2/../../../../arm-none-eabi/lib/armv6k/fpu\libg.a(lib_a-fwrite.o)
 .ARM.attributes
                0x00001692       0x32 c:/devkitpro/devkitarm/bin/../lib/gcc/arm-none-eabi/4.9.2/../../../../arm-none-eabi/lib/armv6k/fpu\libg.a(lib_a-gmtime.o)
 .ARM.attributes
                0x000016c4       0x32 c:/devkitpro/devkitarm/bin/../lib/gcc/arm-none-eabi/4.9.2/../../../../arm-none-eabi/lib/armv6k/fpu\libg.a(lib_a-gmtime_r.o)
 .ARM.attributes
                0x000016f6       0x32 c:/devkitpro/devkitarm/bin/../lib/gcc/arm-none-eabi/4.9.2/../../../../arm-none-eabi/lib/armv6k/fpu\libg.a(lib_a-impure.o)
 .ARM.attributes
                0x00001728       0x32 c:/devkitpro/devkitarm/bin/../lib/gcc/arm-none-eabi/4.9.2/../../../../arm-none-eabi/lib/armv6k/fpu\libg.a(lib_a-init.o)
 .ARM.attributes
                0x0000175a       0x32 c:/devkitpro/devkitarm/bin/../lib/gcc/arm-none-eabi/4.9.2/../../../../arm-none-eabi/lib/armv6k/fpu\libg.a(lib_a-makebuf.o)
 .ARM.attributes
                0x0000178c       0x32 c:/devkitpro/devkitarm/bin/../lib/gcc/arm-none-eabi/4.9.2/../../../../arm-none-eabi/lib/armv6k/fpu\libg.a(lib_a-malloc.o)
 .ARM.attributes
                0x000017be       0x32 c:/devkitpro/devkitarm/bin/../lib/gcc/arm-none-eabi/4.9.2/../../../../arm-none-eabi/lib/armv6k/fpu\libg.a(lib_a-mallocr.o)
 .ARM.attributes
                0x000017f0       0x32 c:/devkitpro/devkitarm/bin/../lib/gcc/arm-none-eabi/4.9.2/../../../../arm-none-eabi/lib/armv6k/fpu\libg.a(lib_a-memcmp.o)
 .ARM.attributes
                0x00001822       0x32 c:/devkitpro/devkitarm/bin/../lib/gcc/arm-none-eabi/4.9.2/../../../../arm-none-eabi/lib/armv6k/fpu\libg.a(lib_a-memcpy.o)
 .ARM.attributes
                0x00001854       0x32 c:/devkitpro/devkitarm/bin/../lib/gcc/arm-none-eabi/4.9.2/../../../../arm-none-eabi/lib/armv6k/fpu\libg.a(lib_a-memset.o)
 .ARM.attributes
                0x00001886       0x32 c:/devkitpro/devkitarm/bin/../lib/gcc/arm-none-eabi/4.9.2/../../../../arm-none-eabi/lib/armv6k/fpu\libg.a(lib_a-mlock.o)
 .ARM.attributes
                0x000018b8       0x32 c:/devkitpro/devkitarm/bin/../lib/gcc/arm-none-eabi/4.9.2/../../../../arm-none-eabi/lib/armv6k/fpu\libg.a(lib_a-month_lengths.o)
 .ARM.attributes
                0x000018ea       0x32 c:/devkitpro/devkitarm/bin/../lib/gcc/arm-none-eabi/4.9.2/../../../../arm-none-eabi/lib/armv6k/fpu\libg.a(lib_a-printf.o)
 .ARM.attributes
                0x0000191c       0x32 c:/devkitpro/devkitarm/bin/../lib/gcc/arm-none-eabi/4.9.2/../../../../arm-none-eabi/lib/armv6k/fpu\libg.a(lib_a-putchar.o)
 .ARM.attributes
                0x0000194e       0x32 c:/devkitpro/devkitarm/bin/../lib/gcc/arm-none-eabi/4.9.2/../../../../arm-none-eabi/lib/armv6k/fpu\libg.a(lib_a-putc.o)
 .ARM.attributes
                0x00001980       0x32 c:/devkitpro/devkitarm/bin/../lib/gcc/arm-none-eabi/4.9.2/../../../../arm-none-eabi/lib/armv6k/fpu\libg.a(lib_a-rand.o)
 .ARM.attributes
                0x000019b2       0x32 c:/devkitpro/devkitarm/bin/../lib/gcc/arm-none-eabi/4.9.2/../../../../arm-none-eabi/lib/armv6k/fpu\libg.a(lib_a-realloc.o)
 .ARM.attributes
                0x000019e4       0x32 c:/devkitpro/devkitarm/bin/../lib/gcc/arm-none-eabi/4.9.2/../../../../arm-none-eabi/lib/armv6k/fpu\libg.a(lib_a-reallocr.o)
 .ARM.attributes
                0x00001a16       0x32 c:/devkitpro/devkitarm/bin/../lib/gcc/arm-none-eabi/4.9.2/../../../../arm-none-eabi/lib/armv6k/fpu\libg.a(lib_a-refill.o)
 .ARM.attributes
                0x00001a48       0x32 c:/devkitpro/devkitarm/bin/../lib/gcc/arm-none-eabi/4.9.2/../../../../arm-none-eabi/lib/armv6k/fpu\libg.a(lib_a-remove.o)
 .ARM.attributes
                0x00001a7a       0x1a c:/devkitpro/devkitarm/bin/../lib/gcc/arm-none-eabi/4.9.2/../../../../arm-none-eabi/lib/armv6k/fpu\libg.a(lib_a-setjmp.o)
 .ARM.attributes
                0x00001a94       0x32 c:/devkitpro/devkitarm/bin/../lib/gcc/arm-none-eabi/4.9.2/../../../../arm-none-eabi/lib/armv6k/fpu\libg.a(lib_a-signal.o)
 .ARM.attributes
                0x00001ac6       0x32 c:/devkitpro/devkitarm/bin/../lib/gcc/arm-none-eabi/4.9.2/../../../../arm-none-eabi/lib/armv6k/fpu\libg.a(lib_a-stdio.o)
 .ARM.attributes
                0x00001af8       0x1a c:/devkitpro/devkitarm/bin/../lib/gcc/arm-none-eabi/4.9.2/../../../../arm-none-eabi/lib/armv6k/fpu\libg.a(lib_a-strcmp.o)
 .ARM.attributes
                0x00001b12       0x32 c:/devkitpro/devkitarm/bin/../lib/gcc/arm-none-eabi/4.9.2/../../../../arm-none-eabi/lib/armv6k/fpu\libg.a(lib_a-strcpy.o)
 .ARM.attributes
                0x00001b44       0x32 c:/devkitpro/devkitarm/bin/../lib/gcc/arm-none-eabi/4.9.2/../../../../arm-none-eabi/lib/armv6k/fpu\libg.a(lib_a-strerror.o)
 .ARM.attributes
                0x00001b76       0x32 c:/devkitpro/devkitarm/bin/../lib/gcc/arm-none-eabi/4.9.2/../../../../arm-none-eabi/lib/armv6k/fpu\libg.a(lib_a-strlen.o)
 .ARM.attributes
                0x00001ba8       0x32 c:/devkitpro/devkitarm/bin/../lib/gcc/arm-none-eabi/4.9.2/../../../../arm-none-eabi/lib/armv6k/fpu\libg.a(lib_a-strncat.o)
 .ARM.attributes
                0x00001bda       0x32 c:/devkitpro/devkitarm/bin/../lib/gcc/arm-none-eabi/4.9.2/../../../../arm-none-eabi/lib/armv6k/fpu\libg.a(lib_a-strncpy.o)
 .ARM.attributes
                0x00001c0c       0x32 c:/devkitpro/devkitarm/bin/../lib/gcc/arm-none-eabi/4.9.2/../../../../arm-none-eabi/lib/armv6k/fpu\libg.a(lib_a-strtod.o)
 .ARM.attributes
                0x00001c3e       0x32 c:/devkitpro/devkitarm/bin/../lib/gcc/arm-none-eabi/4.9.2/../../../../arm-none-eabi/lib/armv6k/fpu\libg.a(lib_a-time.o)
 .ARM.attributes
                0x00001c70       0x32 c:/devkitpro/devkitarm/bin/../lib/gcc/arm-none-eabi/4.9.2/../../../../arm-none-eabi/lib/armv6k/fpu\libg.a(lib_a-u_strerr.o)
 .ARM.attributes
                0x00001ca2       0x32 c:/devkitpro/devkitarm/bin/../lib/gcc/arm-none-eabi/4.9.2/../../../../arm-none-eabi/lib/armv6k/fpu\libg.a(lib_a-vfprintf.o)
 .ARM.attributes
                0x00001cd4       0x32 c:/devkitpro/devkitarm/bin/../lib/gcc/arm-none-eabi/4.9.2/../../../../arm-none-eabi/lib/armv6k/fpu\libg.a(lib_a-wbuf.o)
 .ARM.attributes
                0x00001d06       0x32 c:/devkitpro/devkitarm/bin/../lib/gcc/arm-none-eabi/4.9.2/../../../../arm-none-eabi/lib/armv6k/fpu\libg.a(lib_a-wcrtomb.o)
 .ARM.attributes
                0x00001d38       0x32 c:/devkitpro/devkitarm/bin/../lib/gcc/arm-none-eabi/4.9.2/../../../../arm-none-eabi/lib/armv6k/fpu\libg.a(lib_a-wcsrtombs.o)
 .ARM.attributes
                0x00001d6a       0x32 c:/devkitpro/devkitarm/bin/../lib/gcc/arm-none-eabi/4.9.2/../../../../arm-none-eabi/lib/armv6k/fpu\libg.a(lib_a-wctomb_r.o)
 .ARM.attributes
                0x00001d9c       0x32 c:/devkitpro/devkitarm/bin/../lib/gcc/arm-none-eabi/4.9.2/../../../../arm-none-eabi/lib/armv6k/fpu\libg.a(lib_a-wsetup.o)
 .ARM.attributes
                0x00001dce       0x32 c:/devkitpro/devkitarm/bin/../lib/gcc/arm-none-eabi/4.9.2/../../../../arm-none-eabi/lib/armv6k/fpu\libg.a(lib_a-__call_atexit.o)
 .ARM.attributes
                0x00001e00       0x32 c:/devkitpro/devkitarm/bin/../lib/gcc/arm-none-eabi/4.9.2/../../../../arm-none-eabi/lib/armv6k/fpu\libg.a(lib_a-dtoa.o)
 .ARM.attributes
                0x00001e32       0x32 c:/devkitpro/devkitarm/bin/../lib/gcc/arm-none-eabi/4.9.2/../../../../arm-none-eabi/lib/armv6k/fpu\libg.a(lib_a-flags.o)
 .ARM.attributes
                0x00001e64       0x32 c:/devkitpro/devkitarm/bin/../lib/gcc/arm-none-eabi/4.9.2/../../../../arm-none-eabi/lib/armv6k/fpu\libg.a(lib_a-fvwrite.o)
 .ARM.attributes
                0x00001e96       0x32 c:/devkitpro/devkitarm/bin/../lib/gcc/arm-none-eabi/4.9.2/../../../../arm-none-eabi/lib/armv6k/fpu\libg.a(lib_a-gdtoa-gethex.o)
 .ARM.attributes
                0x00001ec8       0x32 c:/devkitpro/devkitarm/bin/../lib/gcc/arm-none-eabi/4.9.2/../../../../arm-none-eabi/lib/armv6k/fpu\libg.a(lib_a-gdtoa-hexnan.o)
 .ARM.attributes
                0x00001efa       0x32 c:/devkitpro/devkitarm/bin/../lib/gcc/arm-none-eabi/4.9.2/../../../../arm-none-eabi/lib/armv6k/fpu\libg.a(lib_a-locale.o)
 .ARM.attributes
                0x00001f2c       0x32 c:/devkitpro/devkitarm/bin/../lib/gcc/arm-none-eabi/4.9.2/../../../../arm-none-eabi/lib/armv6k/fpu\libg.a(lib_a-mbtowc_r.o)
 .ARM.attributes
                0x00001f5e       0x32 c:/devkitpro/devkitarm/bin/../lib/gcc/arm-none-eabi/4.9.2/../../../../arm-none-eabi/lib/armv6k/fpu\libg.a(lib_a-memchr.o)
 .ARM.attributes
                0x00001f90       0x32 c:/devkitpro/devkitarm/bin/../lib/gcc/arm-none-eabi/4.9.2/../../../../arm-none-eabi/lib/armv6k/fpu\libg.a(lib_a-memmove.o)
 .ARM.attributes
                0x00001fc2       0x32 c:/devkitpro/devkitarm/bin/../lib/gcc/arm-none-eabi/4.9.2/../../../../arm-none-eabi/lib/armv6k/fpu\libg.a(lib_a-mprec.o)
 .ARM.attributes
                0x00001ff4       0x32 c:/devkitpro/devkitarm/bin/../lib/gcc/arm-none-eabi/4.9.2/../../../../arm-none-eabi/lib/armv6k/fpu\libg.a(lib_a-sf_nan.o)
 .ARM.attributes
                0x00002026       0x32 c:/devkitpro/devkitarm/bin/../lib/gcc/arm-none-eabi/4.9.2/../../../../arm-none-eabi/lib/armv6k/fpu\libg.a(lib_a-strcasecmp.o)
 .ARM.attributes
                0x00002058       0x32 c:/devkitpro/devkitarm/bin/../lib/gcc/arm-none-eabi/4.9.2/../../../../arm-none-eabi/lib/armv6k/fpu\libg.a(lib_a-strcat.o)
 .ARM.attributes
                0x0000208a       0x32 c:/devkitpro/devkitarm/bin/../lib/gcc/arm-none-eabi/4.9.2/../../../../arm-none-eabi/lib/armv6k/fpu\libg.a(lib_a-strchr.o)
 .ARM.attributes
                0x000020bc       0x32 c:/devkitpro/devkitarm/bin/../lib/gcc/arm-none-eabi/4.9.2/../../../../arm-none-eabi/lib/armv6k/fpu\libg.a(lib_a-strlcpy.o)
 .ARM.attributes
                0x000020ee       0x32 c:/devkitpro/devkitarm/bin/../lib/gcc/arm-none-eabi/4.9.2/../../../../arm-none-eabi/lib/armv6k/fpu\libg.a(lib_a-strncasecmp.o)
 .ARM.attributes
                0x00002120       0x32 c:/devkitpro/devkitarm/bin/../lib/gcc/arm-none-eabi/4.9.2/../../../../arm-none-eabi/lib/armv6k/fpu\libg.a(lib_a-strncmp.o)
 .ARM.attributes
                0x00002152       0x32 c:/devkitpro/devkitarm/bin/../lib/gcc/arm-none-eabi/4.9.2/../../../../arm-none-eabi/lib/armv6k/fpu\libg.a(lib_a-strtol.o)
 .ARM.attributes
                0x00002184       0x32 c:/devkitpro/devkitarm/bin/../lib/gcc/arm-none-eabi/4.9.2/../../../../arm-none-eabi/lib/armv6k/fpu\libg.a(lib_a-svfiprintf.o)
 .ARM.attributes
                0x000021b6       0x32 c:/devkitpro/devkitarm/bin/../lib/gcc/arm-none-eabi/4.9.2/../../../../arm-none-eabi/lib/armv6k/fpu\libg.a(lib_a-vfiprintf.o)
 .ARM.attributes
                0x000021e8       0x32 c:/devkitpro/devkitarm/bin/../lib/gcc/arm-none-eabi/4.9.2/../../../../arm-none-eabi/lib/armv6k/fpu\libg.a(lib_a-wcsnrtombs.o)
 .ARM.attributes
                0x0000221a       0x32 c:/devkitpro/devkitarm/bin/../lib/gcc/arm-none-eabi/4.9.2/../../../../arm-none-eabi/lib/armv6k/fpu\libg.a(lib_a-callocr.o)
 .ARM.attributes
                0x0000224c       0x32 c:/devkitpro/devkitarm/bin/../lib/gcc/arm-none-eabi/4.9.2/../../../../arm-none-eabi/lib/armv6k/fpu\libg.a(lib_a-ctype_.o)
 .ARM.attributes
                0x0000227e       0x32 c:/devkitpro/devkitarm/bin/../lib/gcc/arm-none-eabi/4.9.2/../../../../arm-none-eabi/lib/armv6k/fpu\libg.a(lib_a-fputwc.o)
 .ARM.attributes
                0x000022b0       0x32 c:/devkitpro/devkitarm/bin/../lib/gcc/arm-none-eabi/4.9.2/../../../../arm-none-eabi/lib/armv6k/fpu\libg.a(lib_a-getenv_r.o)
 .ARM.attributes
                0x000022e2       0x32 c:/devkitpro/devkitarm/bin/../lib/gcc/arm-none-eabi/4.9.2/../../../../arm-none-eabi/lib/armv6k/fpu\libg.a(lib_a-environ.o)
 .ARM.attributes
                0x00002314       0x32 c:/devkitpro/devkitarm/bin/../lib/gcc/arm-none-eabi/4.9.2/../../../../arm-none-eabi/lib/armv6k/fpu\libg.a(lib_a-envlock.o)
 .ARM.attributes
                0x00002346       0x32 c:/devkitpro/devkitarm/bin/../lib/gcc/arm-none-eabi/4.9.2/../../../../arm-none-eabi/lib/armv6k/fpu\libsysbase.a(iosupport.o)
 .ARM.attributes
                0x00002378       0x32 c:/devkitpro/devkitarm/bin/../lib/gcc/arm-none-eabi/4.9.2/../../../../arm-none-eabi/lib/armv6k/fpu\libsysbase.a(close.o)
 .ARM.attributes
                0x000023aa       0x32 c:/devkitpro/devkitarm/bin/../lib/gcc/arm-none-eabi/4.9.2/../../../../arm-none-eabi/lib/armv6k/fpu\libsysbase.a(fstat.o)
 .ARM.attributes
                0x000023dc       0x32 c:/devkitpro/devkitarm/bin/../lib/gcc/arm-none-eabi/4.9.2/../../../../arm-none-eabi/lib/armv6k/fpu\libsysbase.a(getpid.o)
 .ARM.attributes
                0x0000240e       0x32 c:/devkitpro/devkitarm/bin/../lib/gcc/arm-none-eabi/4.9.2/../../../../arm-none-eabi/lib/armv6k/fpu\libsysbase.a(gettod.o)
 .ARM.attributes
                0x00002440       0x32 c:/devkitpro/devkitarm/bin/../lib/gcc/arm-none-eabi/4.9.2/../../../../arm-none-eabi/lib/armv6k/fpu\libsysbase.a(isatty.o)
 .ARM.attributes
                0x00002472       0x32 c:/devkitpro/devkitarm/bin/../lib/gcc/arm-none-eabi/4.9.2/../../../../arm-none-eabi/lib/armv6k/fpu\libsysbase.a(kill.o)
 .ARM.attributes
                0x000024a4       0x32 c:/devkitpro/devkitarm/bin/../lib/gcc/arm-none-eabi/4.9.2/../../../../arm-none-eabi/lib/armv6k/fpu\libsysbase.a(lseek.o)
 .ARM.attributes
                0x000024d6       0x32 c:/devkitpro/devkitarm/bin/../lib/gcc/arm-none-eabi/4.9.2/../../../../arm-none-eabi/lib/armv6k/fpu\libsysbase.a(open.o)
 .ARM.attributes
                0x00002508       0x32 c:/devkitpro/devkitarm/bin/../lib/gcc/arm-none-eabi/4.9.2/../../../../arm-none-eabi/lib/armv6k/fpu\libsysbase.a(read.o)
 .ARM.attributes
                0x0000253a       0x32 c:/devkitpro/devkitarm/bin/../lib/gcc/arm-none-eabi/4.9.2/../../../../arm-none-eabi/lib/armv6k/fpu\libsysbase.a(sbrk.o)
 .ARM.attributes
                0x0000256c       0x32 c:/devkitpro/devkitarm/bin/../lib/gcc/arm-none-eabi/4.9.2/../../../../arm-none-eabi/lib/armv6k/fpu\libsysbase.a(unlink.o)
 .ARM.attributes
                0x0000259e       0x32 c:/devkitpro/devkitarm/bin/../lib/gcc/arm-none-eabi/4.9.2/../../../../arm-none-eabi/lib/armv6k/fpu\libsysbase.a(write.o)
 .ARM.attributes
                0x000025d0       0x32 c:/devkitpro/devkitarm/bin/../lib/gcc/arm-none-eabi/4.9.2/../../../../arm-none-eabi/lib/armv6k/fpu\libsysbase.a(_exit.o)
 .ARM.attributes
                0x00002602       0x32 c:/devkitpro/devkitarm/bin/../lib/gcc/arm-none-eabi/4.9.2/../../../../arm-none-eabi/lib/armv6k/fpu\libsysbase.a(malloc_vars.o)
 .ARM.attributes
                0x00002634       0x32 c:/devkitpro/devkitarm/bin/../lib/gcc/arm-none-eabi/4.9.2/../../../../arm-none-eabi/lib/armv6k/fpu\libsysbase.a(chdir.o)
 .ARM.attributes
                0x00002666       0x32 c:/devkitpro/devkitarm/bin/../lib/gcc/arm-none-eabi/4.9.2/../../../../arm-none-eabi/lib/armv6k/fpu\libsysbase.a(flock.o)
 .ARM.attributes
                0x00002698       0x32 c:/devkitpro/devkitarm/bin/../lib/gcc/arm-none-eabi/4.9.2/../../../../arm-none-eabi/lib/armv6k/fpu\libsysbase.a(syscall_support.o)
 .ARM.attributes
                0x000026ca       0x32 c:/devkitpro/devkitarm/bin/../lib/gcc/arm-none-eabi/4.9.2/../../../../arm-none-eabi/lib/armv6k/fpu\libsysbase.a(handle_manager.o)
 .ARM.attributes
                0x000026fc       0x32 c:/devkitpro/devkitarm/bin/../lib/gcc/arm-none-eabi/4.9.2/../../../../arm-none-eabi/lib/armv6k/fpu\libsysbase.a(getreent.o)
 .ARM.attributes
                0x0000272e       0x1c c:/devkitpro/devkitarm/bin/../lib/gcc/arm-none-eabi/4.9.2/armv6k/fpu\libgcc.a(_aeabi_uldivmod.o)
 .ARM.attributes
                0x0000274a       0x32 c:/devkitpro/devkitarm/bin/../lib/gcc/arm-none-eabi/4.9.2/armv6k/fpu\libgcc.a(bpabi.o)
 .ARM.attributes
                0x0000277c       0x32 c:/devkitpro/devkitarm/bin/../lib/gcc/arm-none-eabi/4.9.2/armv6k/fpu\libgcc.a(_divdi3.o)
 .ARM.attributes
                0x000027ae       0x32 c:/devkitpro/devkitarm/bin/../lib/gcc/arm-none-eabi/4.9.2/armv6k/fpu\libgcc.a(_udivdi3.o)
 .ARM.attributes
                0x000027e0       0x32 c:/devkitpro/devkitarm/bin/../lib/gcc/arm-none-eabi/4.9.2/../../../../arm-none-eabi/lib/armv6k/fpu\libg.a(lib_a-strnlen.o)
 .ARM.attributes
                0x00002812       0x32 c:/devkitpro/devkitarm/bin/../lib/gcc/arm-none-eabi/4.9.2/../../../../arm-none-eabi/lib/armv6k/fpu\libg.a(lib_a-strrchr.o)
 .ARM.attributes
                0x00002844       0x32 c:/devkitpro/devkitarm/bin/../lib/gcc/arm-none-eabi/4.9.2/armv6k/fpu/crtend.o
 .ARM.attributes
                0x00002876       0x1c c:/devkitpro/devkitarm/bin/../lib/gcc/arm-none-eabi/4.9.2/armv6k/fpu/crtn.o

.debug_ranges   0x00000000      0xb40
 .debug_ranges  0x00000000       0x18 main.o
 .debug_ranges  0x00000018       0x40 sudoku.o
 .debug_ranges  0x00000058       0x50 c:/devkitPro/libctru/lib\libsf2d.a(sf2d.o)
 .debug_ranges  0x000000a8       0x80 c:/devkitPro/libctru/lib\libsf2d.a(sf2d_private.o)
 .debug_ranges  0x00000128      0x140 c:/devkitPro/libctru/lib\libsf2d.a(sf2d_texture.o)
 .debug_ranges  0x00000268       0x70 c:/devkitPro/libctru/lib\libctru.a(linear.o)
 .debug_ranges  0x000002d8      0x1d8 c:/devkitPro/libctru/lib\libctru.a(mem_pool.o)
 .debug_ranges  0x000004b0       0x78 c:/devkitPro/libctru/lib\libctru.a(vram.o)
 .debug_ranges  0x00000528       0x90 c:/devkitPro/libctru/lib\libctru.a(gfx.o)
 .debug_ranges  0x000005b8       0x48 c:/devkitPro/libctru/lib\libctru.a(os.o)
 .debug_ranges  0x00000600       0x58 c:/devkitPro/libctru/lib\libctru.a(gpu.o)
 .debug_ranges  0x00000658       0x58 c:/devkitPro/libctru/lib\libctru.a(shaderProgram.o)
 .debug_ranges  0x000006b0       0x38 c:/devkitPro/libctru/lib\libctru.a(shbin.o)
 .debug_ranges  0x000006e8       0xf0 c:/devkitPro/libctru/lib\libctru.a(apt.o)
 .debug_ranges  0x000007d8       0x60 c:/devkitPro/libctru/lib\libctru.a(gsp.o)
 .debug_ranges  0x00000838       0x18 c:/devkitPro/libctru/lib\libctru.a(irrst.o)
 .debug_ranges  0x00000850       0x20 c:/devkitPro/libctru/lib\libctru.a(rbtree_find.o)
 .debug_ranges  0x00000870      0x110 c:/devkitPro/libctru/lib\libctru.a(rbtree_insert.o)
 .debug_ranges  0x00000980       0xf8 c:/devkitPro/libctru/lib\libctru.a(rbtree_remove.o)
 .debug_ranges  0x00000a78       0x30 c:/devkitPro/libctru/lib\libctru.a(rbtree_rotate.o)
 .debug_ranges  0x00000aa8       0x30 c:/devkitPro/libctru/lib\libctru.a(rbtree_iterator.o)
 .debug_ranges  0x00000ad8       0x48 c:/devkitPro/libctru/lib\libctru.a(sdmc_dev.o)
 .debug_ranges  0x00000b20       0x10 c:/devkitPro/libctru/lib\libctru.a(decode_utf8.o)
 .debug_ranges  0x00000b30       0x10 c:/devkitPro/libctru/lib\libctru.a(decode_utf16.o)
